
/home/unga/shg/work/cores/core-v-verif/cv32e40p/tests/programs/custom/hello-world/hello-world.elf:     file format elf32-littleriscv


Disassembly of section .vectors:

00000000 <__vector_start>:
.section .vectors, "ax"
.option norvc
.global vector_table

vector_table:
	j u_sw_irq_handler
   0:	21c0006f          	jal	x0,21c <u_sw_irq_handler>
	j __no_irq_handler
   4:	1e40006f          	jal	x0,1e8 <__no_irq_handler>
	j __no_irq_handler
   8:	1e00006f          	jal	x0,1e8 <__no_irq_handler>
	j m_software_irq_handler
   c:	1ea0006f          	jal	x0,1f6 <m_software_irq_handler>
	j __no_irq_handler
  10:	1d80006f          	jal	x0,1e8 <__no_irq_handler>
	j __no_irq_handler
  14:	1d40006f          	jal	x0,1e8 <__no_irq_handler>
	j __no_irq_handler
  18:	1d00006f          	jal	x0,1e8 <__no_irq_handler>
	j m_timer_irq_handler
  1c:	1dc0006f          	jal	x0,1f8 <m_timer_irq_handler>
	j __no_irq_handler
  20:	1c80006f          	jal	x0,1e8 <__no_irq_handler>
	j __no_irq_handler
  24:	1c40006f          	jal	x0,1e8 <__no_irq_handler>
	j __no_irq_handler
  28:	1c00006f          	jal	x0,1e8 <__no_irq_handler>
	j m_external_irq_handler
  2c:	1ce0006f          	jal	x0,1fa <m_external_irq_handler>
	j __no_irq_handler
  30:	1b80006f          	jal	x0,1e8 <__no_irq_handler>
	j __no_irq_handler
  34:	1b40006f          	jal	x0,1e8 <__no_irq_handler>
	j __no_irq_handler
  38:	1b00006f          	jal	x0,1e8 <__no_irq_handler>
	j __no_irq_handler
  3c:	1ac0006f          	jal	x0,1e8 <__no_irq_handler>
	j m_fast0_irq_handler
  40:	1bc0006f          	jal	x0,1fc <m_fast0_irq_handler>
	j m_fast1_irq_handler
  44:	1ba0006f          	jal	x0,1fe <m_fast1_irq_handler>
	j m_fast2_irq_handler
  48:	1b80006f          	jal	x0,200 <m_fast2_irq_handler>
	j m_fast3_irq_handler
  4c:	1b60006f          	jal	x0,202 <m_fast3_irq_handler>
	j m_fast4_irq_handler
  50:	1b40006f          	jal	x0,204 <m_fast4_irq_handler>
	j m_fast5_irq_handler
  54:	1b20006f          	jal	x0,206 <m_fast5_irq_handler>
	j m_fast6_irq_handler
  58:	1b00006f          	jal	x0,208 <m_fast6_irq_handler>
	j m_fast7_irq_handler
  5c:	1ae0006f          	jal	x0,20a <m_fast7_irq_handler>
	j m_fast8_irq_handler
  60:	1ac0006f          	jal	x0,20c <m_fast8_irq_handler>
	j m_fast9_irq_handler
  64:	1aa0006f          	jal	x0,20e <m_fast9_irq_handler>
	j m_fast10_irq_handler
  68:	1a80006f          	jal	x0,210 <m_fast10_irq_handler>
	j m_fast11_irq_handler
  6c:	1a60006f          	jal	x0,212 <m_fast11_irq_handler>
	j m_fast12_irq_handler
  70:	1a40006f          	jal	x0,214 <m_fast12_irq_handler>
	j m_fast13_irq_handler
  74:	1a20006f          	jal	x0,216 <m_fast13_irq_handler>
	j m_fast14_irq_handler
  78:	1a00006f          	jal	x0,218 <m_fast14_irq_handler>
	j m_fast15_irq_handler
  7c:	19e0006f          	jal	x0,21a <m_fast15_irq_handler>

Disassembly of section .init:

00000080 <_start>:

_start:
/* initialize global pointer */
.option push
.option norelax
1:	auipc gp, %pcrel_hi(__global_pointer$)
  80:	00016197          	auipc	x3,0x16
	addi  gp, gp, %pcrel_lo(1b)
  84:	b6018193          	addi	x3,x3,-1184 # 15be0 <__global_pointer$>
.option pop

/* initialize stack pointer */
	la sp, __stack_end
  88:	00400117          	auipc	x2,0x400
  8c:	f7810113          	addi	x2,x2,-136 # 400000 <__heap_end>

/* set vector table address */
	la a0, __vector_start
  90:	00000517          	auipc	x10,0x0
  94:	f7050513          	addi	x10,x10,-144 # 0 <__vector_start>
	ori a0, a0, 1 /*vector mode = vectored */
  98:	00156513          	ori	x10,x10,1
	csrw mtvec, a0
  9c:	30551073          	csrrw	x0,mtvec,x10

/* clear the bss segment */
	la a0, _edata
  a0:	1cc18513          	addi	x10,x3,460 # 15dac <errno>
	la a2, _end
  a4:	20818613          	addi	x12,x3,520 # 15de8 <__bss_end>
	sub a2, a2, a0
  a8:	8e09                	c.sub	x12,x10
	li a1, 0
  aa:	4581                	c.li	x11,0
	call memset
  ac:	2b51                	c.jal	640 <memset>

/* new-style constructors and destructors */
	la a0, __libc_fini_array
  ae:	00000517          	auipc	x10,0x0
  b2:	49a50513          	addi	x10,x10,1178 # 548 <__libc_fini_array>
	call atexit
  b6:	29bd                	c.jal	534 <atexit>
	call __libc_init_array
  b8:	21f5                	c.jal	5a4 <__libc_init_array>
//	lw a0, 0(sp)                    /* a0 = argc */
//	addi a1, sp, __SIZEOF_POINTER__ /* a1 = argv */
//	li a2, 0                        /* a2 = envp = NULL */
// Initialize these variables to 0. Cannot use argc or argv
// since the stack is not initialized
	li a0, 0
  ba:	4501                	c.li	x10,0
	li a1, 0
  bc:	4581                	c.li	x11,0
	li a2, 0
  be:	4601                	c.li	x12,0

	call main
  c0:	2825                	c.jal	f8 <main>
	tail exit
  c2:	a019                	c.j	c8 <exit>

000000c4 <_fini>:
.type   _fini, @function
_init:
_fini:
 /* These don't have to do anything since we use init_array/fini_array. Prevent
    missing symbol error */
	ret
  c4:	8082                	c.jr	x1

Disassembly of section .text:

000000c8 <exit>:
      c8:	ff010113          	addi	x2,x2,-16
      cc:	00000593          	addi	x11,x0,0
      d0:	00812423          	sw	x8,8(x2)
      d4:	00112623          	sw	x1,12(x2)
      d8:	00050413          	addi	x8,x10,0
      dc:	0fd030ef          	jal	x1,39d8 <__call_exitprocs>
      e0:	1b81a503          	lw	x10,440(x3) # 15d98 <_global_impure_ptr>
      e4:	03c52783          	lw	x15,60(x10)
      e8:	00078463          	beq	x15,x0,f0 <exit+0x28>
      ec:	000780e7          	jalr	x1,0(x15)
      f0:	00040513          	addi	x10,x8,0
      f4:	240000ef          	jal	x1,334 <_exit>

000000f8 <main>:
#define EXP_MISA 0x40801104
#endif


int main(int argc, char *argv[])
{
      f8:	1141                	c.addi	x2,-16
      fa:	c606                	c.swsp	x1,12(x2)
      fc:	c422                	c.swsp	x8,8(x2)
             int reserved, tentative, nonstd, user, super;

    mxl = 0; reserved = 0; tentative = 0; nonstd = 0; user = 0; super = 0;

    /* inline assembly: read mvendorid and misa */
    __asm__ volatile("csrr %0, 0xF11" : "=r"(mvendorid_rval));
      fe:	f11025f3          	csrrs	x11,mvendorid,x0
    __asm__ volatile("csrr %0, 0x301" : "=r"(misa_rval));
     102:	30102473          	csrrs	x8,misa,x0
    __asm__ volatile("csrr %0, 0xF12" : "=r"(marchid_rval));
     106:	f1202773          	csrrs	x14,marchid,x0
    __asm__ volatile("csrr %0, 0xF13" : "=r"(mimpid_rval));
     10a:	f13027f3          	csrrs	x15,mimpid,x0

    /* Check MVENDORID CSR: 0x602 is the value assigned by JEDEC to the OpenHW Group */
    if (mvendorid_rval != 0x00000602) {
     10e:	60200693          	addi	x13,x0,1538
     112:	00d58763          	beq	x11,x13,120 <main+0x28>
      printf("\tERROR: CSR MVENDORID reads as 0x%x - should be 0x00000602 for the OpenHW Group.\n\n", mvendorid_rval);
     116:	6551                	c.lui	x10,0x14
     118:	12050513          	addi	x10,x10,288 # 14120 <__clzsi2+0x50>
      return EXIT_FAILURE;
    }

    /* Check MARCHID CSR: 0x4 is the value assigned by the RISC-V Foundation to CV32E40P */
    if (marchid_rval != 0x00000004) {
      printf("\tERROR: CSR MARCHID reads as 0x%x - should be 0x00000004 for CV32E40P.\n\n", marchid_rval);
     11c:	2581                	c.jal	75c <printf>
      return EXIT_FAILURE;
     11e:	a821                	c.j	136 <main+0x3e>
    if (misa_rval != EXP_MISA) {
     120:	40001637          	lui	x12,0x40001
     124:	10460613          	addi	x12,x12,260 # 40001104 <__heap_end+0x3fc01104>
     128:	00c40c63          	beq	x8,x12,140 <main+0x48>
      printf("\tERROR: CSR MISA reads as 0x%x - should be 0x%x for this release of CV32E40P!\n\n", misa_rval, EXP_MISA);
     12c:	6551                	c.lui	x10,0x14
     12e:	85a2                	c.mv	x11,x8
     130:	17450513          	addi	x10,x10,372 # 14174 <__clzsi2+0xa4>
     134:	2525                	c.jal	75c <printf>
      return EXIT_FAILURE;
     136:	4505                	c.li	x10,1
    }
    else {
      printf("\n");
      return EXIT_SUCCESS;
    }
}
     138:	40b2                	c.lwsp	x1,12(x2)
     13a:	4422                	c.lwsp	x8,8(x2)
     13c:	0141                	c.addi	x2,16
     13e:	8082                	c.jr	x1
    if (marchid_rval != 0x00000004) {
     140:	4691                	c.li	x13,4
     142:	00d70763          	beq	x14,x13,150 <main+0x58>
      printf("\tERROR: CSR MARCHID reads as 0x%x - should be 0x00000004 for CV32E40P.\n\n", marchid_rval);
     146:	6551                	c.lui	x10,0x14
     148:	85ba                	c.mv	x11,x14
     14a:	1c450513          	addi	x10,x10,452 # 141c4 <__clzsi2+0xf4>
     14e:	b7f9                	c.j	11c <main+0x24>
    if (mimpid_rval != 0x00000000) {
     150:	c791                	c.beqz	x15,15c <main+0x64>
      printf("\tERROR: CSR MIMPID reads as 0x%x - should be 0x00000000 for this release of CV32E40P.\n\n", mimpid_rval);
     152:	6551                	c.lui	x10,0x14
     154:	85be                	c.mv	x11,x15
     156:	21050513          	addi	x10,x10,528 # 14210 <__clzsi2+0x140>
     15a:	b7c9                	c.j	11c <main+0x24>
    printf("\nHELLO WORLD!!!\n");
     15c:	6551                	c.lui	x10,0x14
     15e:	26850513          	addi	x10,x10,616 # 14268 <__clzsi2+0x198>
     162:	06f000ef          	jal	x1,9d0 <puts>
    printf("This is the OpenHW Group CV32E40P CORE-V processor core.\n");
     166:	6551                	c.lui	x10,0x14
     168:	27850513          	addi	x10,x10,632 # 14278 <__clzsi2+0x1a8>
     16c:	065000ef          	jal	x1,9d0 <puts>
    printf("CV32E40P is a RISC-V ISA compliant core with the following attributes:\n");
     170:	6551                	c.lui	x10,0x14
     172:	2b450513          	addi	x10,x10,692 # 142b4 <__clzsi2+0x1e4>
     176:	05b000ef          	jal	x1,9d0 <puts>
    printf("\tmvendorid = 0x%x\n", mvendorid_rval);
     17a:	6551                	c.lui	x10,0x14
     17c:	60200593          	addi	x11,x0,1538
     180:	2fc50513          	addi	x10,x10,764 # 142fc <__clzsi2+0x22c>
     184:	2be1                	c.jal	75c <printf>
    printf("\tmarchid   = 0x%x\n", marchid_rval);
     186:	6551                	c.lui	x10,0x14
     188:	4591                	c.li	x11,4
     18a:	31050513          	addi	x10,x10,784 # 14310 <__clzsi2+0x240>
     18e:	23f9                	c.jal	75c <printf>
    printf("\tmimpid    = 0x%x\n", mimpid_rval);
     190:	6551                	c.lui	x10,0x14
     192:	4581                	c.li	x11,0
     194:	32450513          	addi	x10,x10,804 # 14324 <__clzsi2+0x254>
     198:	23d1                	c.jal	75c <printf>
    printf("\tmisa      = 0x%x\n", misa_rval);
     19a:	6551                	c.lui	x10,0x14
     19c:	85a2                	c.mv	x11,x8
     19e:	33850513          	addi	x10,x10,824 # 14338 <__clzsi2+0x268>
     1a2:	2b6d                	c.jal	75c <printf>
      case 1:  printf("\tXLEN is 32-bits\n");
     1a4:	6551                	c.lui	x10,0x14
     1a6:	34c50513          	addi	x10,x10,844 # 1434c <__clzsi2+0x27c>
     1aa:	027000ef          	jal	x1,9d0 <puts>
    printf("\tSupported Instructions Extensions: ");
     1ae:	6551                	c.lui	x10,0x14
     1b0:	36050513          	addi	x10,x10,864 # 14360 <__clzsi2+0x290>
     1b4:	2365                	c.jal	75c <printf>
    if ((misa_rval >> 12) & 0x00000001) printf("M");
     1b6:	04d00513          	addi	x10,x0,77
     1ba:	2bdd                	c.jal	7b0 <putchar>
    if ((misa_rval >>  8) & 0x00000001) printf("I");
     1bc:	04900513          	addi	x10,x0,73
     1c0:	2bc5                	c.jal	7b0 <putchar>
    if ((misa_rval >>  2) & 0x00000001) printf("C");
     1c2:	04300513          	addi	x10,x0,67
     1c6:	23ed                	c.jal	7b0 <putchar>
    printf("\n");
     1c8:	4529                	c.li	x10,10
     1ca:	23dd                	c.jal	7b0 <putchar>
      printf("\n");
     1cc:	4529                	c.li	x10,10
     1ce:	23cd                	c.jal	7b0 <putchar>
      return EXIT_SUCCESS;
     1d0:	4501                	c.li	x10,0
     1d2:	b79d                	c.j	138 <main+0x40>

000001d4 <register_fini>:
     1d4:	00000793          	addi	x15,x0,0
     1d8:	00078663          	beq	x15,x0,1e4 <register_fini+0x10>
     1dc:	54800513          	addi	x10,x0,1352
     1e0:	3540006f          	jal	x0,534 <atexit>
     1e4:	00008067          	jalr	x0,0(x1)

000001e8 <__no_irq_handler>:
.weak m_fast15_irq_handler


/* exception handling */
__no_irq_handler:
	la a0, no_exception_handler_msg
     1e8:	00014517          	auipc	x10,0x14
     1ec:	26a50513          	addi	x10,x10,618 # 14452 <no_exception_handler_msg>
	jal ra, puts
     1f0:	7e0000ef          	jal	x1,9d0 <puts>
	j __no_irq_handler
     1f4:	bfd5                	c.j	1e8 <__no_irq_handler>

000001f6 <m_software_irq_handler>:

m_software_irq_handler:
	j __no_irq_handler
     1f6:	bfcd                	c.j	1e8 <__no_irq_handler>

000001f8 <m_timer_irq_handler>:

m_timer_irq_handler:
	j __no_irq_handler
     1f8:	bfc5                	c.j	1e8 <__no_irq_handler>

000001fa <m_external_irq_handler>:

m_external_irq_handler:
	j __no_irq_handler
     1fa:	b7fd                	c.j	1e8 <__no_irq_handler>

000001fc <m_fast0_irq_handler>:

m_fast0_irq_handler:
	j __no_irq_handler
     1fc:	b7f5                	c.j	1e8 <__no_irq_handler>

000001fe <m_fast1_irq_handler>:

m_fast1_irq_handler:
	j __no_irq_handler
     1fe:	b7ed                	c.j	1e8 <__no_irq_handler>

00000200 <m_fast2_irq_handler>:

m_fast2_irq_handler:
	j __no_irq_handler
     200:	b7e5                	c.j	1e8 <__no_irq_handler>

00000202 <m_fast3_irq_handler>:

m_fast3_irq_handler:
	j __no_irq_handler
     202:	b7dd                	c.j	1e8 <__no_irq_handler>

00000204 <m_fast4_irq_handler>:

m_fast4_irq_handler:
	j __no_irq_handler
     204:	b7d5                	c.j	1e8 <__no_irq_handler>

00000206 <m_fast5_irq_handler>:

m_fast5_irq_handler:
	j __no_irq_handler
     206:	b7cd                	c.j	1e8 <__no_irq_handler>

00000208 <m_fast6_irq_handler>:

m_fast6_irq_handler:
	j __no_irq_handler
     208:	b7c5                	c.j	1e8 <__no_irq_handler>

0000020a <m_fast7_irq_handler>:

m_fast7_irq_handler:
	j __no_irq_handler
     20a:	bff9                	c.j	1e8 <__no_irq_handler>

0000020c <m_fast8_irq_handler>:

m_fast8_irq_handler:
	j __no_irq_handler
     20c:	bff1                	c.j	1e8 <__no_irq_handler>

0000020e <m_fast9_irq_handler>:

m_fast9_irq_handler:
	j __no_irq_handler
     20e:	bfe9                	c.j	1e8 <__no_irq_handler>

00000210 <m_fast10_irq_handler>:

m_fast10_irq_handler:
	j __no_irq_handler
     210:	bfe1                	c.j	1e8 <__no_irq_handler>

00000212 <m_fast11_irq_handler>:

m_fast11_irq_handler:
	j __no_irq_handler
     212:	bfd9                	c.j	1e8 <__no_irq_handler>

00000214 <m_fast12_irq_handler>:

m_fast12_irq_handler:
	j __no_irq_handler
     214:	bfd1                	c.j	1e8 <__no_irq_handler>

00000216 <m_fast13_irq_handler>:

m_fast13_irq_handler:
	j __no_irq_handler
     216:	bfc9                	c.j	1e8 <__no_irq_handler>

00000218 <m_fast14_irq_handler>:

m_fast14_irq_handler:
	j __no_irq_handler
     218:	bfc1                	c.j	1e8 <__no_irq_handler>

0000021a <m_fast15_irq_handler>:

m_fast15_irq_handler:
	j __no_irq_handler
     21a:	b7f9                	c.j	1e8 <__no_irq_handler>

0000021c <u_sw_irq_handler>:

u_sw_irq_handler:
	/* While we are still using puts in handlers, save all caller saved
	   regs.  Eventually, some of these saves could be deferred.  */
	addi sp,sp,-64
     21c:	7139                	c.addi16sp	x2,-64
	sw ra, 0(sp)
     21e:	c006                	c.swsp	x1,0(x2)
	sw a0, 4(sp)
     220:	c22a                	c.swsp	x10,4(x2)
	sw a1, 8(sp)
     222:	c42e                	c.swsp	x11,8(x2)
	sw a2, 12(sp)
     224:	c632                	c.swsp	x12,12(x2)
	sw a3, 16(sp)
     226:	c836                	c.swsp	x13,16(x2)
	sw a4, 20(sp)
     228:	ca3a                	c.swsp	x14,20(x2)
	sw a5, 24(sp)
     22a:	cc3e                	c.swsp	x15,24(x2)
	sw a6, 28(sp)
     22c:	ce42                	c.swsp	x16,28(x2)
	sw a7, 32(sp)
     22e:	d046                	c.swsp	x17,32(x2)
	sw t0, 36(sp)
     230:	d216                	c.swsp	x5,36(x2)
	sw t1, 40(sp)
     232:	d41a                	c.swsp	x6,40(x2)
	sw t2, 44(sp)
     234:	d61e                	c.swsp	x7,44(x2)
	sw t3, 48(sp)
     236:	d872                	c.swsp	x28,48(x2)
	sw t4, 52(sp)
     238:	da76                	c.swsp	x29,52(x2)
	sw t5, 56(sp)
     23a:	dc7a                	c.swsp	x30,56(x2)
	sw t6, 60(sp)
     23c:	de7e                	c.swsp	x31,60(x2)
	csrr t0, mcause
     23e:	342022f3          	csrrs	x5,mcause,x0
	li t1, EXCEPTION_ILLEGAL_INSN
     242:	4309                	c.li	x6,2
	beq t0, t1, handle_illegal_insn
     244:	02628363          	beq	x5,x6,26a <handle_illegal_insn>
	li t1, EXCEPTION_ECALL_M
     248:	432d                	c.li	x6,11
	beq t0, t1, handle_ecall
     24a:	00628663          	beq	x5,x6,256 <handle_ecall>
	li t1, EXCEPTION_BREAKPOINT
     24e:	430d                	c.li	x6,3
	beq t0, t1, handle_ebreak
     250:	00628663          	beq	x5,x6,25c <handle_ebreak>
	j handle_unknown
     254:	a015                	c.j	278 <handle_unknown>

00000256 <handle_ecall>:

handle_ecall:
	jal ra, handle_syscall
     256:	204000ef          	jal	x1,45a <handle_syscall>
	j end_handler_incr_mepc
     25a:	a035                	c.j	286 <end_handler_incr_mepc>

0000025c <handle_ebreak>:

handle_ebreak:
	/* TODO support debug handling requirements.  */
	la a0, ebreak_msg
     25c:	00014517          	auipc	x10,0x14
     260:	19550513          	addi	x10,x10,405 # 143f1 <ebreak_msg>
	jal ra, puts
     264:	76c000ef          	jal	x1,9d0 <puts>
	j end_handler_incr_mepc
     268:	a839                	c.j	286 <end_handler_incr_mepc>

0000026a <handle_illegal_insn>:

handle_illegal_insn:
	la a0, illegal_insn_msg
     26a:	00014517          	auipc	x10,0x14
     26e:	11b50513          	addi	x10,x10,283 # 14385 <illegal_insn_msg>
	jal ra, puts
     272:	75e000ef          	jal	x1,9d0 <puts>
	j end_handler_incr_mepc
     276:	a801                	c.j	286 <end_handler_incr_mepc>

00000278 <handle_unknown>:

handle_unknown:
	la a0, unknown_msg
     278:	00014517          	auipc	x10,0x14
     27c:	1a950513          	addi	x10,x10,425 # 14421 <unknown_msg>
	jal ra, puts
     280:	750000ef          	jal	x1,9d0 <puts>
	/* We don't know what interrupt/exception is being handled, so don't
	   increment mepc.  */
	j end_handler_ret
     284:	a831                	c.j	2a0 <end_handler_ret>

00000286 <end_handler_incr_mepc>:

end_handler_incr_mepc:
	csrr t0, mepc
     286:	341022f3          	csrrs	x5,mepc,x0
	lb t1, 0(t0)
     28a:	00028303          	lb	x6,0(x5)
	li a0, 0x3
     28e:	450d                	c.li	x10,3
	and t1, t1, a0
     290:	00a37333          	and	x6,x6,x10
	/* Increment mepc by 2 or 4 depending on whether the instruction at mepc
	   is compressed or not.  */
	bne t1, a0, end_handler_incr_mepc2
     294:	00a31363          	bne	x6,x10,29a <end_handler_incr_mepc2>
	addi t0, t0, 2
     298:	0289                	c.addi	x5,2

0000029a <end_handler_incr_mepc2>:
end_handler_incr_mepc2:
	addi t0, t0, 2
     29a:	0289                	c.addi	x5,2
	csrw mepc, t0
     29c:	34129073          	csrrw	x0,mepc,x5

000002a0 <end_handler_ret>:
end_handler_ret:
	lw ra, 0(sp)
     2a0:	4082                	c.lwsp	x1,0(x2)
	lw a0, 4(sp)
     2a2:	4512                	c.lwsp	x10,4(x2)
	lw a1, 8(sp)
     2a4:	45a2                	c.lwsp	x11,8(x2)
	lw a2, 12(sp)
     2a6:	4632                	c.lwsp	x12,12(x2)
	lw a3, 16(sp)
     2a8:	46c2                	c.lwsp	x13,16(x2)
	lw a4, 20(sp)
     2aa:	4752                	c.lwsp	x14,20(x2)
	lw a5, 24(sp)
     2ac:	47e2                	c.lwsp	x15,24(x2)
	lw a6, 28(sp)
     2ae:	4872                	c.lwsp	x16,28(x2)
	lw a7, 32(sp)
     2b0:	5882                	c.lwsp	x17,32(x2)
	lw t0, 36(sp)
     2b2:	5292                	c.lwsp	x5,36(x2)
	lw t1, 40(sp)
     2b4:	5322                	c.lwsp	x6,40(x2)
	lw t2, 44(sp)
     2b6:	53b2                	c.lwsp	x7,44(x2)
	lw t3, 48(sp)
     2b8:	5e42                	c.lwsp	x28,48(x2)
	lw t4, 52(sp)
     2ba:	5ed2                	c.lwsp	x29,52(x2)
	lw t5, 56(sp)
     2bc:	5f62                	c.lwsp	x30,56(x2)
	lw t6, 60(sp)
     2be:	5ff2                	c.lwsp	x31,60(x2)
	addi sp,sp,64
     2c0:	6121                	c.addi16sp	x2,64
	mret
     2c2:	30200073          	mret

000002c6 <__syscall_error>:
#endif
/* Upstream newlib now defines this in libgloss/riscv/internal_syscall.h.  */
long
__syscall_error(long a0)
{
  errno = -a0;
     2c6:	40a00533          	sub	x10,x0,x10
     2ca:	1ca1a623          	sw	x10,460(x3) # 15dac <errno>
  return -1;
}
     2ce:	557d                	c.li	x10,-1
     2d0:	8082                	c.jr	x1

000002d2 <unimplemented_syscall>:

void unimplemented_syscall()
{
  const char *p = "BSP: Unimplemented system call called!\n";
     2d2:	67d1                	c.lui	x15,0x14
     2d4:	48078793          	addi	x15,x15,1152 # 14480 <no_exception_handler_msg+0x2e>
  while (*p)
    *(volatile int *)STDOUT_REG = *(p++);
     2d8:	100006b7          	lui	x13,0x10000
  while (*p)
     2dc:	0007c703          	lbu	x14,0(x15)
     2e0:	e311                	c.bnez	x14,2e4 <unimplemented_syscall+0x12>
}
     2e2:	8082                	c.jr	x1
    *(volatile int *)STDOUT_REG = *(p++);
     2e4:	0785                	c.addi	x15,1
     2e6:	c298                	c.sw	x14,0(x13)
     2e8:	bfd5                	c.j	2dc <unimplemented_syscall+0xa>

000002ea <nanosleep>:

int nanosleep(const struct timespec *rqtp, struct timespec *rmtp)
{
  errno = ENOSYS;
     2ea:	05800713          	addi	x14,x0,88
     2ee:	1ce1a623          	sw	x14,460(x3) # 15dac <errno>
  return -1;
}
     2f2:	557d                	c.li	x10,-1
     2f4:	8082                	c.jr	x1

000002f6 <_access>:

int _access(const char *file, int mode)
{
  errno = ENOSYS;
     2f6:	05800713          	addi	x14,x0,88
     2fa:	1ce1a623          	sw	x14,460(x3) # 15dac <errno>
  return -1;
}
     2fe:	557d                	c.li	x10,-1
     300:	8082                	c.jr	x1

00000302 <_chdir>:

int _chdir(const char *path)
{
  errno = ENOSYS;
     302:	05800713          	addi	x14,x0,88
     306:	1ce1a623          	sw	x14,460(x3) # 15dac <errno>
  return -1;
}
     30a:	557d                	c.li	x10,-1
     30c:	8082                	c.jr	x1

0000030e <_chmod>:

int _chmod(const char *path, mode_t mode)
{
  errno = ENOSYS;
     30e:	05800713          	addi	x14,x0,88
     312:	1ce1a623          	sw	x14,460(x3) # 15dac <errno>
  return -1;
}
     316:	557d                	c.li	x10,-1
     318:	8082                	c.jr	x1

0000031a <_chown>:

int _chown(const char *path, uid_t owner, gid_t group)
{
  errno = ENOSYS;
     31a:	05800713          	addi	x14,x0,88
     31e:	1ce1a623          	sw	x14,460(x3) # 15dac <errno>
  return -1;
}
     322:	557d                	c.li	x10,-1
     324:	8082                	c.jr	x1

00000326 <_close>:

int _close(int file)
{
  return -1;
}
     326:	557d                	c.li	x10,-1
     328:	8082                	c.jr	x1

0000032a <_execve>:

int _execve(const char *name, char *const argv[], char *const env[])
{
  errno = ENOMEM;
     32a:	4731                	c.li	x14,12
     32c:	1ce1a623          	sw	x14,460(x3) # 15dac <errno>
  return -1;
}
     330:	557d                	c.li	x10,-1
     332:	8082                	c.jr	x1

00000334 <_exit>:

void _exit(int exit_status)
{
  *(volatile int *)EXIT_REG = exit_status;
     334:	200007b7          	lui	x15,0x20000
     338:	c3c8                	c.sw	x10,4(x15)
  asm volatile("wfi");
     33a:	10500073          	wfi
  /* _exit should not return */
  while (1) {};
     33e:	a001                	c.j	33e <_exit+0xa>

00000340 <_faccessat>:
}

int _faccessat(int dirfd, const char *file, int mode, int flags)
{
  errno = ENOSYS;
     340:	05800713          	addi	x14,x0,88
     344:	1ce1a623          	sw	x14,460(x3) # 15dac <errno>
  return -1;
}
     348:	557d                	c.li	x10,-1
     34a:	8082                	c.jr	x1

0000034c <_fork>:

int _fork(void)
{
  errno = EAGAIN;
     34c:	472d                	c.li	x14,11
     34e:	1ce1a623          	sw	x14,460(x3) # 15dac <errno>
  return -1;
}
     352:	557d                	c.li	x10,-1
     354:	8082                	c.jr	x1

00000356 <_fstat>:

int _fstat(int file, struct stat *st)
{
  st->st_mode = S_IFCHR;
     356:	6789                	c.lui	x15,0x2
     358:	c1dc                	c.sw	x15,4(x11)
  return 0;
  // errno = -ENOSYS;
  // return -1;
}
     35a:	4501                	c.li	x10,0
     35c:	8082                	c.jr	x1

0000035e <_fstatat>:

int _fstatat(int dirfd, const char *file, struct stat *st, int flags)
{
  errno = ENOSYS;
     35e:	05800713          	addi	x14,x0,88
     362:	1ce1a623          	sw	x14,460(x3) # 15dac <errno>
  return -1;
}
     366:	557d                	c.li	x10,-1
     368:	8082                	c.jr	x1

0000036a <_ftime>:

int _ftime(struct timeb *tp)
     36a:	05800713          	addi	x14,x0,88
     36e:	1ce1a623          	sw	x14,460(x3) # 15dac <errno>
     372:	557d                	c.li	x10,-1
     374:	8082                	c.jr	x1

00000376 <_getcwd>:
  return -1;
}

char *_getcwd(char *buf, size_t size)
{
  errno = -ENOSYS;
     376:	fa800713          	addi	x14,x0,-88
     37a:	1ce1a623          	sw	x14,460(x3) # 15dac <errno>
  return NULL;
}
     37e:	4501                	c.li	x10,0
     380:	8082                	c.jr	x1

00000382 <_getpid>:

int _getpid()
{
  return 1;
}
     382:	4505                	c.li	x10,1
     384:	8082                	c.jr	x1

00000386 <_gettimeofday>:

int _gettimeofday(struct timeval *tp, void *tzp)
{
  errno = -ENOSYS;
     386:	fa800713          	addi	x14,x0,-88
     38a:	1ce1a623          	sw	x14,460(x3) # 15dac <errno>
  return -1;
}
     38e:	557d                	c.li	x10,-1
     390:	8082                	c.jr	x1

00000392 <_isatty>:

int _isatty(int file)
{
  return (file == STDOUT_FILENO);
     392:	157d                	c.addi	x10,-1
}
     394:	00153513          	sltiu	x10,x10,1
     398:	8082                	c.jr	x1

0000039a <_kill>:

int _kill(int pid, int sig)
{
  errno = EINVAL;
     39a:	4759                	c.li	x14,22
     39c:	1ce1a623          	sw	x14,460(x3) # 15dac <errno>
  return -1;
}
     3a0:	557d                	c.li	x10,-1
     3a2:	8082                	c.jr	x1

000003a4 <_link>:

int _link(const char *old_name, const char *new_name)
{
  errno = EMLINK;
     3a4:	477d                	c.li	x14,31
     3a6:	1ce1a623          	sw	x14,460(x3) # 15dac <errno>
  return -1;
}
     3aa:	557d                	c.li	x10,-1
     3ac:	8082                	c.jr	x1

000003ae <_lseek>:

off_t _lseek(int file, off_t ptr, int dir)
{
  return 0;
}
     3ae:	4501                	c.li	x10,0
     3b0:	8082                	c.jr	x1

000003b2 <_lstat>:

int _lstat(const char *file, struct stat *st)
     3b2:	05800713          	addi	x14,x0,88
     3b6:	1ce1a623          	sw	x14,460(x3) # 15dac <errno>
     3ba:	557d                	c.li	x10,-1
     3bc:	8082                	c.jr	x1

000003be <_open>:
}

int _open(const char *name, int flags, int mode)
{
  return -1;
}
     3be:	557d                	c.li	x10,-1
     3c0:	8082                	c.jr	x1

000003c2 <_openat>:

int _openat(int dirfd, const char *name, int flags, int mode)
     3c2:	05800713          	addi	x14,x0,88
     3c6:	1ce1a623          	sw	x14,460(x3) # 15dac <errno>
     3ca:	557d                	c.li	x10,-1
     3cc:	8082                	c.jr	x1

000003ce <_read>:
}

ssize_t _read(int file, void *ptr, size_t len)
{
  return 0;
}
     3ce:	4501                	c.li	x10,0
     3d0:	8082                	c.jr	x1

000003d2 <_stat>:

int _stat(const char *file, struct stat *st)
{
  st->st_mode = S_IFCHR;
     3d2:	6789                	c.lui	x15,0x2
     3d4:	c1dc                	c.sw	x15,4(x11)
  return 0;
  // errno = ENOSYS;
  // return -1;
}
     3d6:	4501                	c.li	x10,0
     3d8:	8082                	c.jr	x1

000003da <_sysconf>:

long _sysconf(int name)
     3da:	557d                	c.li	x10,-1
     3dc:	8082                	c.jr	x1

000003de <_times>:
}

clock_t _times(struct tms *buf)
{
  return -1;
}
     3de:	557d                	c.li	x10,-1
     3e0:	8082                	c.jr	x1

000003e2 <_unlink>:

int _unlink(const char *name)
{
  errno = ENOENT;
     3e2:	4709                	c.li	x14,2
     3e4:	1ce1a623          	sw	x14,460(x3) # 15dac <errno>
  return -1;
}
     3e8:	557d                	c.li	x10,-1
     3ea:	8082                	c.jr	x1

000003ec <_utime>:

int _utime(const char *path, const struct utimbuf *times)
     3ec:	05800713          	addi	x14,x0,88
     3f0:	1ce1a623          	sw	x14,460(x3) # 15dac <errno>
     3f4:	557d                	c.li	x10,-1
     3f6:	8082                	c.jr	x1

000003f8 <_wait>:
  return -1;
}

int _wait(int *status)
{
  errno = ECHILD;
     3f8:	4729                	c.li	x14,10
     3fa:	1ce1a623          	sw	x14,460(x3) # 15dac <errno>
  return -1;
}
     3fe:	557d                	c.li	x10,-1
     400:	8082                	c.jr	x1

00000402 <_write>:

ssize_t _write(int file, const void *ptr, size_t len)
{
  const char *cptr = (char *)ptr;
  if (file != STDOUT_FILENO)
     402:	4685                	c.li	x13,1
    {
      errno = ENOSYS;
      return -1;
    }

  const void *eptr = cptr + len;
     404:	00c587b3          	add	x15,x11,x12
  while (cptr != eptr)
    *(volatile int *)STDOUT_REG = *cptr++;
     408:	10000737          	lui	x14,0x10000
  if (file != STDOUT_FILENO)
     40c:	00d50c63          	beq	x10,x13,424 <_write+0x22>
      errno = ENOSYS;
     410:	05800713          	addi	x14,x0,88
     414:	1ce1a623          	sw	x14,460(x3) # 15dac <errno>
      return -1;
     418:	557d                	c.li	x10,-1
     41a:	8082                	c.jr	x1
    *(volatile int *)STDOUT_REG = *cptr++;
     41c:	0005c683          	lbu	x13,0(x11)
     420:	0585                	c.addi	x11,1
     422:	c314                	c.sw	x13,0(x14)
  while (cptr != eptr)
     424:	fef59ce3          	bne	x11,x15,41c <_write+0x1a>
  return len;
     428:	8532                	c.mv	x10,x12
}
     42a:	8082                	c.jr	x1

0000042c <_brk>:
extern char __heap_end[];
static char *brk = __heap_start;

int _brk(void *addr)
{
  brk = addr;
     42c:	1aa1ae23          	sw	x10,444(x3) # 15d9c <brk>
  return 0;
}
     430:	4501                	c.li	x10,0
     432:	8082                	c.jr	x1

00000434 <_sbrk>:

void *_sbrk(ptrdiff_t incr)
{
     434:	87aa                	c.mv	x15,x10
  char *old_brk = brk;
     436:	1bc1a503          	lw	x10,444(x3) # 15d9c <brk>
  register long sp asm("sp");

  char *new_brk = brk += incr;
     43a:	97aa                	c.add	x15,x10
     43c:	1af1ae23          	sw	x15,444(x3) # 15d9c <brk>
  if (new_brk < (char *) sp && new_brk < __heap_end)
     440:	0027f863          	bgeu	x15,x2,450 <_sbrk+0x1c>
     444:	00400737          	lui	x14,0x400
     448:	00070713          	addi	x14,x14,0 # 400000 <__heap_end>
     44c:	00e7e663          	bltu	x15,x14,458 <_sbrk+0x24>

      return old_brk;
    }
  else
    {
      errno = ENOMEM;
     450:	4731                	c.li	x14,12
     452:	1ce1a623          	sw	x14,460(x3) # 15dac <errno>
      return (void *) -1;
     456:	557d                	c.li	x10,-1
    }
}
     458:	8082                	c.jr	x1

0000045a <handle_syscall>:
    register long syscall_id asm("t0");
  #else
    long syscall_id = a7;
  #endif

  switch (syscall_id) {
     45a:	08100793          	addi	x15,x0,129
     45e:	0af88c63          	beq	x17,x15,516 <handle_syscall+0xbc>
     462:	0717c763          	blt	x15,x17,4d0 <handle_syscall+0x76>
     466:	04000793          	addi	x15,x0,64
     46a:	0517c663          	blt	x15,x17,4b6 <handle_syscall+0x5c>
     46e:	02f00793          	addi	x15,x0,47
     472:	0317c563          	blt	x15,x17,49c <handle_syscall+0x42>
     476:	47c5                	c.li	x15,17
     478:	04f89b63          	bne	x17,x15,4ce <handle_syscall+0x74>
  errno = -ENOSYS;
     47c:	fa800713          	addi	x14,x0,-88
     480:	a861                	c.j	518 <handle_syscall+0xbe>
  switch (syscall_id) {
     482:	c0088893          	addi	x17,x17,-1024
     486:	47bd                	c.li	x15,15
     488:	0517e363          	bltu	x15,x17,4ce <handle_syscall+0x74>
     48c:	67d1                	c.lui	x15,0x14
     48e:	4a878793          	addi	x15,x15,1192 # 144a8 <no_exception_handler_msg+0x56>
     492:	088a                	c.slli	x17,0x2
     494:	98be                	c.add	x17,x15
     496:	0008a783          	lw	x15,0(x17)
     49a:	8782                	c.jr	x15
     49c:	fd088893          	addi	x17,x17,-48
     4a0:	47c1                	c.li	x15,16
     4a2:	0317e663          	bltu	x15,x17,4ce <handle_syscall+0x74>
     4a6:	67d1                	c.lui	x15,0x14
     4a8:	4e878793          	addi	x15,x15,1256 # 144e8 <no_exception_handler_msg+0x96>
     4ac:	088a                	c.slli	x17,0x2
     4ae:	98be                	c.add	x17,x15
     4b0:	0008a783          	lw	x15,0(x17)
     4b4:	8782                	c.jr	x15
     4b6:	05000793          	addi	x15,x0,80
     4ba:	06f88963          	beq	x17,x15,52c <handle_syscall+0xd2>
     4be:	05d00793          	addi	x15,x0,93
     4c2:	04f88363          	beq	x17,x15,508 <handle_syscall+0xae>
     4c6:	04f00793          	addi	x15,x0,79
     4ca:	04f88a63          	beq	x17,x15,51e <handle_syscall+0xc4>
      break;
    case SYS_times:
      _times ((struct tms *) a0);
      break;
    default:
      unimplemented_syscall ();
     4ce:	b511                	c.j	2d2 <unimplemented_syscall>
  switch (syscall_id) {
     4d0:	40f00793          	addi	x15,x0,1039
     4d4:	ff17cde3          	blt	x15,x17,4ce <handle_syscall+0x74>
     4d8:	3ff00793          	addi	x15,x0,1023
     4dc:	fb17c3e3          	blt	x15,x17,482 <handle_syscall+0x28>
     4e0:	0ac00793          	addi	x15,x0,172
     4e4:	04f88763          	beq	x17,x15,532 <handle_syscall+0xd8>
     4e8:	0117c963          	blt	x15,x17,4fa <handle_syscall+0xa0>
     4ec:	09900793          	addi	x15,x0,153
     4f0:	04f88163          	beq	x17,x15,532 <handle_syscall+0xd8>
     4f4:	0a900793          	addi	x15,x0,169
     4f8:	b741                	c.j	478 <handle_syscall+0x1e>
     4fa:	0d600793          	addi	x15,x0,214
     4fe:	fcf898e3          	bne	x17,x15,4ce <handle_syscall+0x74>
  brk = addr;
     502:	1aa1ae23          	sw	x10,444(x3) # 15d9c <brk>
  return 0;
     506:	8082                	c.jr	x1
  *(volatile int *)EXIT_REG = exit_status;
     508:	200007b7          	lui	x15,0x20000
     50c:	c3c8                	c.sw	x10,4(x15)
  asm volatile("wfi");
     50e:	10500073          	wfi
  while (1) {};
     512:	a001                	c.j	512 <handle_syscall+0xb8>
      _write (a0, (const void *) a1, a2);
     514:	b5fd                	c.j	402 <_write>
  errno = EINVAL;
     516:	4759                	c.li	x14,22
  errno = ENOSYS;
     518:	1ce1a623          	sw	x14,460(x3) # 15dac <errno>
  return -1;
     51c:	8082                	c.jr	x1
  errno = ENOSYS;
     51e:	05800713          	addi	x14,x0,88
     522:	bfdd                	c.j	518 <handle_syscall+0xbe>
  errno = EMLINK;
     524:	477d                	c.li	x14,31
     526:	bfcd                	c.j	518 <handle_syscall+0xbe>
  errno = ENOENT;
     528:	4709                	c.li	x14,2
     52a:	b7fd                	c.j	518 <handle_syscall+0xbe>
  st->st_mode = S_IFCHR;
     52c:	6789                	c.lui	x15,0x2
     52e:	c1dc                	c.sw	x15,4(x11)
  return 0;
     530:	8082                	c.jr	x1
      break;
  }
}
     532:	8082                	c.jr	x1

00000534 <atexit>:
     534:	00050593          	addi	x11,x10,0
     538:	00000693          	addi	x13,x0,0
     53c:	00000613          	addi	x12,x0,0
     540:	00000513          	addi	x10,x0,0
     544:	3fc0306f          	jal	x0,3940 <__register_exitproc>

00000548 <__libc_fini_array>:
     548:	ff010113          	addi	x2,x2,-16
     54c:	00812423          	sw	x8,8(x2)
     550:	000157b7          	lui	x15,0x15
     554:	00015437          	lui	x8,0x15
     558:	3e078793          	addi	x15,x15,992 # 153e0 <impure_data>
     55c:	3e040413          	addi	x8,x8,992 # 153e0 <impure_data>
     560:	40f40433          	sub	x8,x8,x15
     564:	00912223          	sw	x9,4(x2)
     568:	00112623          	sw	x1,12(x2)
     56c:	40245493          	srai	x9,x8,0x2
     570:	02048063          	beq	x9,x0,590 <__libc_fini_array+0x48>
     574:	ffc40413          	addi	x8,x8,-4
     578:	00f40433          	add	x8,x8,x15
     57c:	00042783          	lw	x15,0(x8)
     580:	fff48493          	addi	x9,x9,-1
     584:	ffc40413          	addi	x8,x8,-4
     588:	000780e7          	jalr	x1,0(x15)
     58c:	fe0498e3          	bne	x9,x0,57c <__libc_fini_array+0x34>
     590:	00c12083          	lw	x1,12(x2)
     594:	00812403          	lw	x8,8(x2)
     598:	00412483          	lw	x9,4(x2)
     59c:	01010113          	addi	x2,x2,16
     5a0:	00008067          	jalr	x0,0(x1)

000005a4 <__libc_init_array>:
     5a4:	ff010113          	addi	x2,x2,-16
     5a8:	00812423          	sw	x8,8(x2)
     5ac:	000157b7          	lui	x15,0x15
     5b0:	00015437          	lui	x8,0x15
     5b4:	01212023          	sw	x18,0(x2)
     5b8:	3dc78793          	addi	x15,x15,988 # 153dc <__init_array_start>
     5bc:	3dc40713          	addi	x14,x8,988 # 153dc <__init_array_start>
     5c0:	00112623          	sw	x1,12(x2)
     5c4:	00912223          	sw	x9,4(x2)
     5c8:	40e78933          	sub	x18,x15,x14
     5cc:	02e78263          	beq	x15,x14,5f0 <__libc_init_array+0x4c>
     5d0:	40295913          	srai	x18,x18,0x2
     5d4:	3dc40413          	addi	x8,x8,988
     5d8:	00000493          	addi	x9,x0,0
     5dc:	00042783          	lw	x15,0(x8)
     5e0:	00148493          	addi	x9,x9,1
     5e4:	00440413          	addi	x8,x8,4
     5e8:	000780e7          	jalr	x1,0(x15)
     5ec:	ff24e8e3          	bltu	x9,x18,5dc <__libc_init_array+0x38>
     5f0:	00015437          	lui	x8,0x15
     5f4:	000157b7          	lui	x15,0x15
     5f8:	3e078793          	addi	x15,x15,992 # 153e0 <impure_data>
     5fc:	3dc40713          	addi	x14,x8,988 # 153dc <__init_array_start>
     600:	40e78933          	sub	x18,x15,x14
     604:	40295913          	srai	x18,x18,0x2
     608:	02e78063          	beq	x15,x14,628 <__libc_init_array+0x84>
     60c:	3dc40413          	addi	x8,x8,988
     610:	00000493          	addi	x9,x0,0
     614:	00042783          	lw	x15,0(x8)
     618:	00148493          	addi	x9,x9,1
     61c:	00440413          	addi	x8,x8,4
     620:	000780e7          	jalr	x1,0(x15)
     624:	ff24e8e3          	bltu	x9,x18,614 <__libc_init_array+0x70>
     628:	00c12083          	lw	x1,12(x2)
     62c:	00812403          	lw	x8,8(x2)
     630:	00412483          	lw	x9,4(x2)
     634:	00012903          	lw	x18,0(x2)
     638:	01010113          	addi	x2,x2,16
     63c:	00008067          	jalr	x0,0(x1)

00000640 <memset>:
     640:	00f00313          	addi	x6,x0,15
     644:	00050713          	addi	x14,x10,0
     648:	02c37e63          	bgeu	x6,x12,684 <memset+0x44>
     64c:	00f77793          	andi	x15,x14,15
     650:	0a079063          	bne	x15,x0,6f0 <memset+0xb0>
     654:	08059263          	bne	x11,x0,6d8 <memset+0x98>
     658:	ff067693          	andi	x13,x12,-16
     65c:	00f67613          	andi	x12,x12,15
     660:	00e686b3          	add	x13,x13,x14
     664:	00b72023          	sw	x11,0(x14)
     668:	00b72223          	sw	x11,4(x14)
     66c:	00b72423          	sw	x11,8(x14)
     670:	00b72623          	sw	x11,12(x14)
     674:	01070713          	addi	x14,x14,16
     678:	fed766e3          	bltu	x14,x13,664 <memset+0x24>
     67c:	00061463          	bne	x12,x0,684 <memset+0x44>
     680:	00008067          	jalr	x0,0(x1)
     684:	40c306b3          	sub	x13,x6,x12
     688:	00269693          	slli	x13,x13,0x2
     68c:	00000297          	auipc	x5,0x0
     690:	005686b3          	add	x13,x13,x5
     694:	00c68067          	jalr	x0,12(x13) # 1000000c <__heap_end+0xfc0000c>
     698:	00b70723          	sb	x11,14(x14)
     69c:	00b706a3          	sb	x11,13(x14)
     6a0:	00b70623          	sb	x11,12(x14)
     6a4:	00b705a3          	sb	x11,11(x14)
     6a8:	00b70523          	sb	x11,10(x14)
     6ac:	00b704a3          	sb	x11,9(x14)
     6b0:	00b70423          	sb	x11,8(x14)
     6b4:	00b703a3          	sb	x11,7(x14)
     6b8:	00b70323          	sb	x11,6(x14)
     6bc:	00b702a3          	sb	x11,5(x14)
     6c0:	00b70223          	sb	x11,4(x14)
     6c4:	00b701a3          	sb	x11,3(x14)
     6c8:	00b70123          	sb	x11,2(x14)
     6cc:	00b700a3          	sb	x11,1(x14)
     6d0:	00b70023          	sb	x11,0(x14)
     6d4:	00008067          	jalr	x0,0(x1)
     6d8:	0ff5f593          	andi	x11,x11,255
     6dc:	00859693          	slli	x13,x11,0x8
     6e0:	00d5e5b3          	or	x11,x11,x13
     6e4:	01059693          	slli	x13,x11,0x10
     6e8:	00d5e5b3          	or	x11,x11,x13
     6ec:	f6dff06f          	jal	x0,658 <memset+0x18>
     6f0:	00279693          	slli	x13,x15,0x2
     6f4:	00000297          	auipc	x5,0x0
     6f8:	005686b3          	add	x13,x13,x5
     6fc:	00008293          	addi	x5,x1,0
     700:	fa0680e7          	jalr	x1,-96(x13)
     704:	00028093          	addi	x1,x5,0 # 6f4 <memset+0xb4>
     708:	ff078793          	addi	x15,x15,-16
     70c:	40f70733          	sub	x14,x14,x15
     710:	00f60633          	add	x12,x12,x15
     714:	f6c378e3          	bgeu	x6,x12,684 <memset+0x44>
     718:	f3dff06f          	jal	x0,654 <memset+0x14>

0000071c <_printf_r>:
     71c:	fc010113          	addi	x2,x2,-64
     720:	02c12423          	sw	x12,40(x2)
     724:	02d12623          	sw	x13,44(x2)
     728:	02e12823          	sw	x14,48(x2)
     72c:	02f12a23          	sw	x15,52(x2)
     730:	03012c23          	sw	x16,56(x2)
     734:	03112e23          	sw	x17,60(x2)
     738:	00058613          	addi	x12,x11,0
     73c:	00852583          	lw	x11,8(x10)
     740:	02810693          	addi	x13,x2,40
     744:	00112e23          	sw	x1,28(x2)
     748:	00d12623          	sw	x13,12(x2)
     74c:	4cc000ef          	jal	x1,c18 <_vfprintf_r>
     750:	01c12083          	lw	x1,28(x2)
     754:	04010113          	addi	x2,x2,64
     758:	00008067          	jalr	x0,0(x1)

0000075c <printf>:
     75c:	1c01a303          	lw	x6,448(x3) # 15da0 <_impure_ptr>
     760:	fc010113          	addi	x2,x2,-64
     764:	02c12423          	sw	x12,40(x2)
     768:	02d12623          	sw	x13,44(x2)
     76c:	02b12223          	sw	x11,36(x2)
     770:	02e12823          	sw	x14,48(x2)
     774:	02f12a23          	sw	x15,52(x2)
     778:	03012c23          	sw	x16,56(x2)
     77c:	03112e23          	sw	x17,60(x2)
     780:	00832583          	lw	x11,8(x6)
     784:	02410693          	addi	x13,x2,36
     788:	00050613          	addi	x12,x10,0
     78c:	00030513          	addi	x10,x6,0
     790:	00112e23          	sw	x1,28(x2)
     794:	00d12623          	sw	x13,12(x2)
     798:	480000ef          	jal	x1,c18 <_vfprintf_r>
     79c:	01c12083          	lw	x1,28(x2)
     7a0:	04010113          	addi	x2,x2,64
     7a4:	00008067          	jalr	x0,0(x1)

000007a8 <_putchar_r>:
     7a8:	00852603          	lw	x12,8(x10)
     7ac:	0180006f          	jal	x0,7c4 <_putc_r>

000007b0 <putchar>:
     7b0:	1c01a783          	lw	x15,448(x3) # 15da0 <_impure_ptr>
     7b4:	00050593          	addi	x11,x10,0
     7b8:	0087a603          	lw	x12,8(x15)
     7bc:	00078513          	addi	x10,x15,0
     7c0:	0040006f          	jal	x0,7c4 <_putc_r>

000007c4 <_putc_r>:
     7c4:	fe010113          	addi	x2,x2,-32
     7c8:	01212c23          	sw	x18,24(x2)
     7cc:	00112e23          	sw	x1,28(x2)
     7d0:	00050913          	addi	x18,x10,0
     7d4:	00050663          	beq	x10,x0,7e0 <_putc_r+0x1c>
     7d8:	03852783          	lw	x15,56(x10)
     7dc:	04078663          	beq	x15,x0,828 <_putc_r+0x64>
     7e0:	00862783          	lw	x15,8(x12)
     7e4:	fff78793          	addi	x15,x15,-1
     7e8:	00f62423          	sw	x15,8(x12)
     7ec:	0007dc63          	bge	x15,x0,804 <_putc_r+0x40>
     7f0:	01862703          	lw	x14,24(x12)
     7f4:	04e7c663          	blt	x15,x14,840 <_putc_r+0x7c>
     7f8:	0ff5f793          	andi	x15,x11,255
     7fc:	00a00713          	addi	x14,x0,10
     800:	04e78063          	beq	x15,x14,840 <_putc_r+0x7c>
     804:	00062783          	lw	x15,0(x12)
     808:	0ff5f513          	andi	x10,x11,255
     80c:	00178713          	addi	x14,x15,1
     810:	00e62023          	sw	x14,0(x12)
     814:	00b78023          	sb	x11,0(x15)
     818:	01c12083          	lw	x1,28(x2)
     81c:	01812903          	lw	x18,24(x2)
     820:	02010113          	addi	x2,x2,32
     824:	00008067          	jalr	x0,0(x1)
     828:	00c12623          	sw	x12,12(x2)
     82c:	00b12423          	sw	x11,8(x2)
     830:	139030ef          	jal	x1,4168 <__sinit>
     834:	00c12603          	lw	x12,12(x2)
     838:	00812583          	lw	x11,8(x2)
     83c:	fa5ff06f          	jal	x0,7e0 <_putc_r+0x1c>
     840:	01c12083          	lw	x1,28(x2)
     844:	00090513          	addi	x10,x18,0
     848:	01812903          	lw	x18,24(x2)
     84c:	02010113          	addi	x2,x2,32
     850:	6290206f          	jal	x0,3678 <__swbuf_r>

00000854 <putc>:
     854:	ff010113          	addi	x2,x2,-16
     858:	01212023          	sw	x18,0(x2)
     85c:	1c01a903          	lw	x18,448(x3) # 15da0 <_impure_ptr>
     860:	00812423          	sw	x8,8(x2)
     864:	00912223          	sw	x9,4(x2)
     868:	00112623          	sw	x1,12(x2)
     86c:	00050493          	addi	x9,x10,0
     870:	00058413          	addi	x8,x11,0
     874:	00090663          	beq	x18,x0,880 <putc+0x2c>
     878:	03892783          	lw	x15,56(x18)
     87c:	04078a63          	beq	x15,x0,8d0 <putc+0x7c>
     880:	00842783          	lw	x15,8(x8)
     884:	fff78793          	addi	x15,x15,-1
     888:	00f42423          	sw	x15,8(x8)
     88c:	0007dc63          	bge	x15,x0,8a4 <putc+0x50>
     890:	01842703          	lw	x14,24(x8)
     894:	04e7c463          	blt	x15,x14,8dc <putc+0x88>
     898:	0ff4f793          	andi	x15,x9,255
     89c:	00a00713          	addi	x14,x0,10
     8a0:	02e78e63          	beq	x15,x14,8dc <putc+0x88>
     8a4:	00042783          	lw	x15,0(x8)
     8a8:	0ff4f513          	andi	x10,x9,255
     8ac:	00178713          	addi	x14,x15,1
     8b0:	00e42023          	sw	x14,0(x8)
     8b4:	00978023          	sb	x9,0(x15)
     8b8:	00c12083          	lw	x1,12(x2)
     8bc:	00812403          	lw	x8,8(x2)
     8c0:	00412483          	lw	x9,4(x2)
     8c4:	00012903          	lw	x18,0(x2)
     8c8:	01010113          	addi	x2,x2,16
     8cc:	00008067          	jalr	x0,0(x1)
     8d0:	00090513          	addi	x10,x18,0
     8d4:	095030ef          	jal	x1,4168 <__sinit>
     8d8:	fa9ff06f          	jal	x0,880 <putc+0x2c>
     8dc:	00040613          	addi	x12,x8,0
     8e0:	00812403          	lw	x8,8(x2)
     8e4:	00c12083          	lw	x1,12(x2)
     8e8:	00048593          	addi	x11,x9,0
     8ec:	00090513          	addi	x10,x18,0
     8f0:	00412483          	lw	x9,4(x2)
     8f4:	00012903          	lw	x18,0(x2)
     8f8:	01010113          	addi	x2,x2,16
     8fc:	57d0206f          	jal	x0,3678 <__swbuf_r>

00000900 <_puts_r>:
     900:	fc010113          	addi	x2,x2,-64
     904:	02812c23          	sw	x8,56(x2)
     908:	00050413          	addi	x8,x10,0
     90c:	00058513          	addi	x10,x11,0
     910:	02912a23          	sw	x9,52(x2)
     914:	02112e23          	sw	x1,60(x2)
     918:	00058493          	addi	x9,x11,0
     91c:	270000ef          	jal	x1,b8c <strlen>
     920:	000147b7          	lui	x15,0x14
     924:	52c78793          	addi	x15,x15,1324 # 1452c <no_exception_handler_msg+0xda>
     928:	02f12423          	sw	x15,40(x2)
     92c:	00100793          	addi	x15,x0,1
     930:	02f12623          	sw	x15,44(x2)
     934:	03842703          	lw	x14,56(x8)
     938:	02010793          	addi	x15,x2,32
     93c:	00150693          	addi	x13,x10,1
     940:	00f12a23          	sw	x15,20(x2)
     944:	00200793          	addi	x15,x0,2
     948:	02912023          	sw	x9,32(x2)
     94c:	02a12223          	sw	x10,36(x2)
     950:	00d12e23          	sw	x13,28(x2)
     954:	00f12c23          	sw	x15,24(x2)
     958:	00842583          	lw	x11,8(x8)
     95c:	06070063          	beq	x14,x0,9bc <_puts_r+0xbc>
     960:	00c59783          	lh	x15,12(x11)
     964:	01279713          	slli	x14,x15,0x12
     968:	02074263          	blt	x14,x0,98c <_puts_r+0x8c>
     96c:	0645a703          	lw	x14,100(x11)
     970:	000026b7          	lui	x13,0x2
     974:	00d7e7b3          	or	x15,x15,x13
     978:	ffffe6b7          	lui	x13,0xffffe
     97c:	fff68693          	addi	x13,x13,-1 # ffffdfff <__heap_end+0xffbfdfff>
     980:	00d77733          	and	x14,x14,x13
     984:	00f59623          	sh	x15,12(x11)
     988:	06e5a223          	sw	x14,100(x11)
     98c:	01410613          	addi	x12,x2,20
     990:	00040513          	addi	x10,x8,0
     994:	43d030ef          	jal	x1,45d0 <__sfvwrite_r>
     998:	03c12083          	lw	x1,60(x2)
     99c:	03812403          	lw	x8,56(x2)
     9a0:	00153513          	sltiu	x10,x10,1
     9a4:	40a00533          	sub	x10,x0,x10
     9a8:	00b57513          	andi	x10,x10,11
     9ac:	03412483          	lw	x9,52(x2)
     9b0:	fff50513          	addi	x10,x10,-1
     9b4:	04010113          	addi	x2,x2,64
     9b8:	00008067          	jalr	x0,0(x1)
     9bc:	00040513          	addi	x10,x8,0
     9c0:	00b12623          	sw	x11,12(x2)
     9c4:	7a4030ef          	jal	x1,4168 <__sinit>
     9c8:	00c12583          	lw	x11,12(x2)
     9cc:	f95ff06f          	jal	x0,960 <_puts_r+0x60>

000009d0 <puts>:
     9d0:	00050593          	addi	x11,x10,0
     9d4:	1c01a503          	lw	x10,448(x3) # 15da0 <_impure_ptr>
     9d8:	f29ff06f          	jal	x0,900 <_puts_r>

000009dc <cleanup_glue>:
     9dc:	fe010113          	addi	x2,x2,-32
     9e0:	01212823          	sw	x18,16(x2)
     9e4:	0005a903          	lw	x18,0(x11)
     9e8:	00812c23          	sw	x8,24(x2)
     9ec:	00912a23          	sw	x9,20(x2)
     9f0:	00112e23          	sw	x1,28(x2)
     9f4:	01312623          	sw	x19,12(x2)
     9f8:	01412423          	sw	x20,8(x2)
     9fc:	00058413          	addi	x8,x11,0
     a00:	00050493          	addi	x9,x10,0
     a04:	04090263          	beq	x18,x0,a48 <cleanup_glue+0x6c>
     a08:	00092983          	lw	x19,0(x18)
     a0c:	02098863          	beq	x19,x0,a3c <cleanup_glue+0x60>
     a10:	0009aa03          	lw	x20,0(x19)
     a14:	000a0e63          	beq	x20,x0,a30 <cleanup_glue+0x54>
     a18:	000a2583          	lw	x11,0(x20)
     a1c:	00058463          	beq	x11,x0,a24 <cleanup_glue+0x48>
     a20:	fbdff0ef          	jal	x1,9dc <cleanup_glue>
     a24:	000a0593          	addi	x11,x20,0
     a28:	00048513          	addi	x10,x9,0
     a2c:	0ad030ef          	jal	x1,42d8 <_free_r>
     a30:	00098593          	addi	x11,x19,0
     a34:	00048513          	addi	x10,x9,0
     a38:	0a1030ef          	jal	x1,42d8 <_free_r>
     a3c:	00090593          	addi	x11,x18,0
     a40:	00048513          	addi	x10,x9,0
     a44:	095030ef          	jal	x1,42d8 <_free_r>
     a48:	00040593          	addi	x11,x8,0
     a4c:	01812403          	lw	x8,24(x2)
     a50:	01c12083          	lw	x1,28(x2)
     a54:	01012903          	lw	x18,16(x2)
     a58:	00c12983          	lw	x19,12(x2)
     a5c:	00812a03          	lw	x20,8(x2)
     a60:	00048513          	addi	x10,x9,0
     a64:	01412483          	lw	x9,20(x2)
     a68:	02010113          	addi	x2,x2,32
     a6c:	06d0306f          	jal	x0,42d8 <_free_r>

00000a70 <_reclaim_reent>:
     a70:	1c01a783          	lw	x15,448(x3) # 15da0 <_impure_ptr>
     a74:	10a78a63          	beq	x15,x10,b88 <_reclaim_reent+0x118>
     a78:	04c52583          	lw	x11,76(x10)
     a7c:	fe010113          	addi	x2,x2,-32
     a80:	00912a23          	sw	x9,20(x2)
     a84:	00112e23          	sw	x1,28(x2)
     a88:	00812c23          	sw	x8,24(x2)
     a8c:	01212823          	sw	x18,16(x2)
     a90:	01312623          	sw	x19,12(x2)
     a94:	00050493          	addi	x9,x10,0
     a98:	04058063          	beq	x11,x0,ad8 <_reclaim_reent+0x68>
     a9c:	00000913          	addi	x18,x0,0
     aa0:	08000993          	addi	x19,x0,128
     aa4:	012587b3          	add	x15,x11,x18
     aa8:	0007a403          	lw	x8,0(x15)
     aac:	00040e63          	beq	x8,x0,ac8 <_reclaim_reent+0x58>
     ab0:	00040593          	addi	x11,x8,0
     ab4:	00042403          	lw	x8,0(x8)
     ab8:	00048513          	addi	x10,x9,0
     abc:	01d030ef          	jal	x1,42d8 <_free_r>
     ac0:	fe0418e3          	bne	x8,x0,ab0 <_reclaim_reent+0x40>
     ac4:	04c4a583          	lw	x11,76(x9)
     ac8:	00490913          	addi	x18,x18,4
     acc:	fd391ce3          	bne	x18,x19,aa4 <_reclaim_reent+0x34>
     ad0:	00048513          	addi	x10,x9,0
     ad4:	005030ef          	jal	x1,42d8 <_free_r>
     ad8:	0404a583          	lw	x11,64(x9)
     adc:	00058663          	beq	x11,x0,ae8 <_reclaim_reent+0x78>
     ae0:	00048513          	addi	x10,x9,0
     ae4:	7f4030ef          	jal	x1,42d8 <_free_r>
     ae8:	1484a403          	lw	x8,328(x9)
     aec:	02040063          	beq	x8,x0,b0c <_reclaim_reent+0x9c>
     af0:	14c48913          	addi	x18,x9,332
     af4:	01240c63          	beq	x8,x18,b0c <_reclaim_reent+0x9c>
     af8:	00040593          	addi	x11,x8,0
     afc:	00042403          	lw	x8,0(x8)
     b00:	00048513          	addi	x10,x9,0
     b04:	7d4030ef          	jal	x1,42d8 <_free_r>
     b08:	fe8918e3          	bne	x18,x8,af8 <_reclaim_reent+0x88>
     b0c:	0544a583          	lw	x11,84(x9)
     b10:	00058663          	beq	x11,x0,b1c <_reclaim_reent+0xac>
     b14:	00048513          	addi	x10,x9,0
     b18:	7c0030ef          	jal	x1,42d8 <_free_r>
     b1c:	0384a783          	lw	x15,56(x9)
     b20:	04078663          	beq	x15,x0,b6c <_reclaim_reent+0xfc>
     b24:	03c4a783          	lw	x15,60(x9)
     b28:	00048513          	addi	x10,x9,0
     b2c:	000780e7          	jalr	x1,0(x15)
     b30:	2e04a403          	lw	x8,736(x9)
     b34:	02040c63          	beq	x8,x0,b6c <_reclaim_reent+0xfc>
     b38:	00042583          	lw	x11,0(x8)
     b3c:	00058663          	beq	x11,x0,b48 <_reclaim_reent+0xd8>
     b40:	00048513          	addi	x10,x9,0
     b44:	e99ff0ef          	jal	x1,9dc <cleanup_glue>
     b48:	00040593          	addi	x11,x8,0
     b4c:	01812403          	lw	x8,24(x2)
     b50:	01c12083          	lw	x1,28(x2)
     b54:	01012903          	lw	x18,16(x2)
     b58:	00c12983          	lw	x19,12(x2)
     b5c:	00048513          	addi	x10,x9,0
     b60:	01412483          	lw	x9,20(x2)
     b64:	02010113          	addi	x2,x2,32
     b68:	7700306f          	jal	x0,42d8 <_free_r>
     b6c:	01c12083          	lw	x1,28(x2)
     b70:	01812403          	lw	x8,24(x2)
     b74:	01412483          	lw	x9,20(x2)
     b78:	01012903          	lw	x18,16(x2)
     b7c:	00c12983          	lw	x19,12(x2)
     b80:	02010113          	addi	x2,x2,32
     b84:	00008067          	jalr	x0,0(x1)
     b88:	00008067          	jalr	x0,0(x1)

00000b8c <strlen>:
     b8c:	00357793          	andi	x15,x10,3
     b90:	00050713          	addi	x14,x10,0
     b94:	04079c63          	bne	x15,x0,bec <strlen+0x60>
     b98:	7f7f86b7          	lui	x13,0x7f7f8
     b9c:	f7f68693          	addi	x13,x13,-129 # 7f7f7f7f <__heap_end+0x7f3f7f7f>
     ba0:	fff00593          	addi	x11,x0,-1
     ba4:	00072603          	lw	x12,0(x14)
     ba8:	00470713          	addi	x14,x14,4
     bac:	00d677b3          	and	x15,x12,x13
     bb0:	00d787b3          	add	x15,x15,x13
     bb4:	00c7e7b3          	or	x15,x15,x12
     bb8:	00d7e7b3          	or	x15,x15,x13
     bbc:	feb784e3          	beq	x15,x11,ba4 <strlen+0x18>
     bc0:	ffc74683          	lbu	x13,-4(x14)
     bc4:	40a707b3          	sub	x15,x14,x10
     bc8:	04068463          	beq	x13,x0,c10 <strlen+0x84>
     bcc:	ffd74683          	lbu	x13,-3(x14)
     bd0:	02068c63          	beq	x13,x0,c08 <strlen+0x7c>
     bd4:	ffe74503          	lbu	x10,-2(x14)
     bd8:	00a03533          	sltu	x10,x0,x10
     bdc:	00f50533          	add	x10,x10,x15
     be0:	ffe50513          	addi	x10,x10,-2
     be4:	00008067          	jalr	x0,0(x1)
     be8:	fa0688e3          	beq	x13,x0,b98 <strlen+0xc>
     bec:	00074783          	lbu	x15,0(x14)
     bf0:	00170713          	addi	x14,x14,1
     bf4:	00377693          	andi	x13,x14,3
     bf8:	fe0798e3          	bne	x15,x0,be8 <strlen+0x5c>
     bfc:	40a70733          	sub	x14,x14,x10
     c00:	fff70513          	addi	x10,x14,-1
     c04:	00008067          	jalr	x0,0(x1)
     c08:	ffd78513          	addi	x10,x15,-3
     c0c:	00008067          	jalr	x0,0(x1)
     c10:	ffc78513          	addi	x10,x15,-4
     c14:	00008067          	jalr	x0,0(x1)

00000c18 <_vfprintf_r>:
     c18:	e1010113          	addi	x2,x2,-496
     c1c:	1e112623          	sw	x1,492(x2)
     c20:	1e812423          	sw	x8,488(x2)
     c24:	00b12423          	sw	x11,8(x2)
     c28:	00c12623          	sw	x12,12(x2)
     c2c:	00d12c23          	sw	x13,24(x2)
     c30:	1e912223          	sw	x9,484(x2)
     c34:	1f212023          	sw	x18,480(x2)
     c38:	1d312e23          	sw	x19,476(x2)
     c3c:	1d412c23          	sw	x20,472(x2)
     c40:	1d512a23          	sw	x21,468(x2)
     c44:	1d612823          	sw	x22,464(x2)
     c48:	1d712623          	sw	x23,460(x2)
     c4c:	1d812423          	sw	x24,456(x2)
     c50:	1d912223          	sw	x25,452(x2)
     c54:	1da12023          	sw	x26,448(x2)
     c58:	1bb12e23          	sw	x27,444(x2)
     c5c:	00050413          	addi	x8,x10,0
     c60:	02a12823          	sw	x10,48(x2)
     c64:	3dd060ef          	jal	x1,7840 <_localeconv_r>
     c68:	00052703          	lw	x14,0(x10)
     c6c:	00070513          	addi	x10,x14,0
     c70:	02e12c23          	sw	x14,56(x2)
     c74:	f19ff0ef          	jal	x1,b8c <strlen>
     c78:	02a12a23          	sw	x10,52(x2)
     c7c:	0e012823          	sw	x0,240(x2)
     c80:	0e012a23          	sw	x0,244(x2)
     c84:	0e012c23          	sw	x0,248(x2)
     c88:	0e012e23          	sw	x0,252(x2)
     c8c:	00c12283          	lw	x5,12(x2)
     c90:	00040663          	beq	x8,x0,c9c <_vfprintf_r+0x84>
     c94:	03842783          	lw	x15,56(x8)
     c98:	040788e3          	beq	x15,x0,14e8 <_vfprintf_r+0x8d0>
     c9c:	00812603          	lw	x12,8(x2)
     ca0:	00c61783          	lh	x15,12(x12)
     ca4:	01279713          	slli	x14,x15,0x12
     ca8:	02074663          	blt	x14,x0,cd4 <_vfprintf_r+0xbc>
     cac:	06462703          	lw	x14,100(x12)
     cb0:	000026b7          	lui	x13,0x2
     cb4:	00d7e7b3          	or	x15,x15,x13
     cb8:	ffffe6b7          	lui	x13,0xffffe
     cbc:	01079793          	slli	x15,x15,0x10
     cc0:	fff68693          	addi	x13,x13,-1 # ffffdfff <__heap_end+0xffbfdfff>
     cc4:	4107d793          	srai	x15,x15,0x10
     cc8:	00d77733          	and	x14,x14,x13
     ccc:	00f61623          	sh	x15,12(x12)
     cd0:	06e62223          	sw	x14,100(x12)
     cd4:	0087f713          	andi	x14,x15,8
     cd8:	2e070c63          	beq	x14,x0,fd0 <_vfprintf_r+0x3b8>
     cdc:	00812703          	lw	x14,8(x2)
     ce0:	01072703          	lw	x14,16(x14)
     ce4:	2e070663          	beq	x14,x0,fd0 <_vfprintf_r+0x3b8>
     ce8:	01a7f793          	andi	x15,x15,26
     cec:	00a00713          	addi	x14,x0,10
     cf0:	30e78863          	beq	x15,x14,1000 <_vfprintf_r+0x3e8>
     cf4:	000147b7          	lui	x15,0x14
     cf8:	57478793          	addi	x15,x15,1396 # 14574 <no_exception_handler_msg+0x122>
     cfc:	00f12e23          	sw	x15,28(x2)
     d00:	000147b7          	lui	x15,0x14
     d04:	77878793          	addi	x15,x15,1912 # 14778 <zeroes.0>
     d08:	00028c13          	addi	x24,x5,0
     d0c:	00f12623          	sw	x15,12(x2)
     d10:	000c4783          	lbu	x15,0(x24)
     d14:	10c10b13          	addi	x22,x2,268
     d18:	0f612223          	sw	x22,228(x2)
     d1c:	0e012623          	sw	x0,236(x2)
     d20:	0e012423          	sw	x0,232(x2)
     d24:	02012223          	sw	x0,36(x2)
     d28:	02012e23          	sw	x0,60(x2)
     d2c:	04012223          	sw	x0,68(x2)
     d30:	04012023          	sw	x0,64(x2)
     d34:	04012623          	sw	x0,76(x2)
     d38:	04012423          	sw	x0,72(x2)
     d3c:	00012823          	sw	x0,16(x2)
     d40:	03012983          	lw	x19,48(x2)
     d44:	000b0413          	addi	x8,x22,0
     d48:	22078463          	beq	x15,x0,f70 <_vfprintf_r+0x358>
     d4c:	000c0493          	addi	x9,x24,0
     d50:	02500713          	addi	x14,x0,37
     d54:	40e78c63          	beq	x15,x14,116c <_vfprintf_r+0x554>
     d58:	0014c783          	lbu	x15,1(x9)
     d5c:	00148493          	addi	x9,x9,1
     d60:	fe079ae3          	bne	x15,x0,d54 <_vfprintf_r+0x13c>
     d64:	41848933          	sub	x18,x9,x24
     d68:	21848463          	beq	x9,x24,f70 <_vfprintf_r+0x358>
     d6c:	0ec12703          	lw	x14,236(x2)
     d70:	0e812783          	lw	x15,232(x2)
     d74:	01842023          	sw	x24,0(x8)
     d78:	01270733          	add	x14,x14,x18
     d7c:	00178793          	addi	x15,x15,1
     d80:	01242223          	sw	x18,4(x8)
     d84:	0ee12623          	sw	x14,236(x2)
     d88:	0ef12423          	sw	x15,232(x2)
     d8c:	00700713          	addi	x14,x0,7
     d90:	00840413          	addi	x8,x8,8
     d94:	3ef74463          	blt	x14,x15,117c <_vfprintf_r+0x564>
     d98:	01012703          	lw	x14,16(x2)
     d9c:	0004c783          	lbu	x15,0(x9)
     da0:	01270733          	add	x14,x14,x18
     da4:	00e12823          	sw	x14,16(x2)
     da8:	1c078463          	beq	x15,x0,f70 <_vfprintf_r+0x358>
     dac:	0014c883          	lbu	x17,1(x9)
     db0:	0c0103a3          	sb	x0,199(x2)
     db4:	00148493          	addi	x9,x9,1
     db8:	fff00913          	addi	x18,x0,-1
     dbc:	00000a13          	addi	x20,x0,0
     dc0:	00000b93          	addi	x23,x0,0
     dc4:	05a00c93          	addi	x25,x0,90
     dc8:	00148493          	addi	x9,x9,1
     dcc:	fe088793          	addi	x15,x17,-32
     dd0:	04fce663          	bltu	x25,x15,e1c <_vfprintf_r+0x204>
     dd4:	01c12703          	lw	x14,28(x2)
     dd8:	00279793          	slli	x15,x15,0x2
     ddc:	00e787b3          	add	x15,x15,x14
     de0:	0007a783          	lw	x15,0(x15)
     de4:	00078067          	jalr	x0,0(x15)
     de8:	00000a13          	addi	x20,x0,0
     dec:	fd088793          	addi	x15,x17,-48
     df0:	00900693          	addi	x13,x0,9
     df4:	0004c883          	lbu	x17,0(x9)
     df8:	002a1713          	slli	x14,x20,0x2
     dfc:	01470a33          	add	x20,x14,x20
     e00:	001a1a13          	slli	x20,x20,0x1
     e04:	01478a33          	add	x20,x15,x20
     e08:	fd088793          	addi	x15,x17,-48
     e0c:	00148493          	addi	x9,x9,1
     e10:	fef6f2e3          	bgeu	x13,x15,df4 <_vfprintf_r+0x1dc>
     e14:	fe088793          	addi	x15,x17,-32
     e18:	fafcfee3          	bgeu	x25,x15,dd4 <_vfprintf_r+0x1bc>
     e1c:	14088a63          	beq	x17,x0,f70 <_vfprintf_r+0x358>
     e20:	15110623          	sb	x17,332(x2)
     e24:	0c0103a3          	sb	x0,199(x2)
     e28:	00100c93          	addi	x25,x0,1
     e2c:	00100d13          	addi	x26,x0,1
     e30:	14c10c13          	addi	x24,x2,332
     e34:	00012a23          	sw	x0,20(x2)
     e38:	00000913          	addi	x18,x0,0
     e3c:	02012623          	sw	x0,44(x2)
     e40:	02012423          	sw	x0,40(x2)
     e44:	02012023          	sw	x0,32(x2)
     e48:	002bff93          	andi	x31,x23,2
     e4c:	000f8463          	beq	x31,x0,e54 <_vfprintf_r+0x23c>
     e50:	002c8c93          	addi	x25,x25,2
     e54:	084bfd93          	andi	x27,x23,132
     e58:	000d9663          	bne	x27,x0,e64 <_vfprintf_r+0x24c>
     e5c:	419a0733          	sub	x14,x20,x25
     e60:	46e04ee3          	blt	x0,x14,1adc <_vfprintf_r+0xec4>
     e64:	0c714703          	lbu	x14,199(x2)
     e68:	02070c63          	beq	x14,x0,ea0 <_vfprintf_r+0x288>
     e6c:	0ec12603          	lw	x12,236(x2)
     e70:	0e812703          	lw	x14,232(x2)
     e74:	0c710593          	addi	x11,x2,199
     e78:	00160613          	addi	x12,x12,1
     e7c:	00b42023          	sw	x11,0(x8)
     e80:	00170713          	addi	x14,x14,1
     e84:	00100593          	addi	x11,x0,1
     e88:	00b42223          	sw	x11,4(x8)
     e8c:	0ec12623          	sw	x12,236(x2)
     e90:	0ee12423          	sw	x14,232(x2)
     e94:	00700613          	addi	x12,x0,7
     e98:	00840413          	addi	x8,x8,8
     e9c:	40e64263          	blt	x12,x14,12a0 <_vfprintf_r+0x688>
     ea0:	020f8c63          	beq	x31,x0,ed8 <_vfprintf_r+0x2c0>
     ea4:	0ec12603          	lw	x12,236(x2)
     ea8:	0e812703          	lw	x14,232(x2)
     eac:	0c810793          	addi	x15,x2,200
     eb0:	00260613          	addi	x12,x12,2
     eb4:	00170713          	addi	x14,x14,1
     eb8:	00200593          	addi	x11,x0,2
     ebc:	00f42023          	sw	x15,0(x8)
     ec0:	00b42223          	sw	x11,4(x8)
     ec4:	0ec12623          	sw	x12,236(x2)
     ec8:	0ee12423          	sw	x14,232(x2)
     ecc:	00700613          	addi	x12,x0,7
     ed0:	00840413          	addi	x8,x8,8
     ed4:	50e646e3          	blt	x12,x14,1be0 <_vfprintf_r+0xfc8>
     ed8:	08000713          	addi	x14,x0,128
     edc:	20ed80e3          	beq	x27,x14,18dc <_vfprintf_r+0xcc4>
     ee0:	41a90933          	sub	x18,x18,x26
     ee4:	2f2042e3          	blt	x0,x18,19c8 <_vfprintf_r+0xdb0>
     ee8:	100bf713          	andi	x14,x23,256
     eec:	04071ee3          	bne	x14,x0,1748 <_vfprintf_r+0xb30>
     ef0:	0ec12703          	lw	x14,236(x2)
     ef4:	0e812603          	lw	x12,232(x2)
     ef8:	01842023          	sw	x24,0(x8)
     efc:	00ed0733          	add	x14,x26,x14
     f00:	00160613          	addi	x12,x12,1
     f04:	01a42223          	sw	x26,4(x8)
     f08:	0ee12623          	sw	x14,236(x2)
     f0c:	0ec12423          	sw	x12,232(x2)
     f10:	00700593          	addi	x11,x0,7
     f14:	4ac5ce63          	blt	x11,x12,13d0 <_vfprintf_r+0x7b8>
     f18:	00840413          	addi	x8,x8,8
     f1c:	004bf793          	andi	x15,x23,4
     f20:	00078663          	beq	x15,x0,f2c <_vfprintf_r+0x314>
     f24:	419a0933          	sub	x18,x20,x25
     f28:	4d204ee3          	blt	x0,x18,1c04 <_vfprintf_r+0xfec>
     f2c:	000a0313          	addi	x6,x20,0
     f30:	019a5463          	bge	x20,x25,f38 <_vfprintf_r+0x320>
     f34:	000c8313          	addi	x6,x25,0
     f38:	01012783          	lw	x15,16(x2)
     f3c:	006787b3          	add	x15,x15,x6
     f40:	00f12823          	sw	x15,16(x2)
     f44:	360712e3          	bne	x14,x0,1aa8 <_vfprintf_r+0xe90>
     f48:	01412783          	lw	x15,20(x2)
     f4c:	0e012423          	sw	x0,232(x2)
     f50:	00078863          	beq	x15,x0,f60 <_vfprintf_r+0x348>
     f54:	01412583          	lw	x11,20(x2)
     f58:	00098513          	addi	x10,x19,0
     f5c:	37c030ef          	jal	x1,42d8 <_free_r>
     f60:	000b0413          	addi	x8,x22,0
     f64:	00048c13          	addi	x24,x9,0
     f68:	000c4783          	lbu	x15,0(x24)
     f6c:	de0790e3          	bne	x15,x0,d4c <_vfprintf_r+0x134>
     f70:	0ec12783          	lw	x15,236(x2)
     f74:	00078463          	beq	x15,x0,f7c <_vfprintf_r+0x364>
     f78:	3a10106f          	jal	x0,2b18 <_vfprintf_r+0x1f00>
     f7c:	00812783          	lw	x15,8(x2)
     f80:	00c7d783          	lhu	x15,12(x15)
     f84:	0407f793          	andi	x15,x15,64
     f88:	00078463          	beq	x15,x0,f90 <_vfprintf_r+0x378>
     f8c:	3280206f          	jal	x0,32b4 <_vfprintf_r+0x269c>
     f90:	1ec12083          	lw	x1,492(x2)
     f94:	1e812403          	lw	x8,488(x2)
     f98:	01012503          	lw	x10,16(x2)
     f9c:	1e412483          	lw	x9,484(x2)
     fa0:	1e012903          	lw	x18,480(x2)
     fa4:	1dc12983          	lw	x19,476(x2)
     fa8:	1d812a03          	lw	x20,472(x2)
     fac:	1d412a83          	lw	x21,468(x2)
     fb0:	1d012b03          	lw	x22,464(x2)
     fb4:	1cc12b83          	lw	x23,460(x2)
     fb8:	1c812c03          	lw	x24,456(x2)
     fbc:	1c412c83          	lw	x25,452(x2)
     fc0:	1c012d03          	lw	x26,448(x2)
     fc4:	1bc12d83          	lw	x27,444(x2)
     fc8:	1f010113          	addi	x2,x2,496
     fcc:	00008067          	jalr	x0,0(x1)
     fd0:	00812583          	lw	x11,8(x2)
     fd4:	03012503          	lw	x10,48(x2)
     fd8:	00512623          	sw	x5,12(x2)
     fdc:	025020ef          	jal	x1,3800 <__swsetup_r>
     fe0:	00c12283          	lw	x5,12(x2)
     fe4:	00050463          	beq	x10,x0,fec <_vfprintf_r+0x3d4>
     fe8:	2cc0206f          	jal	x0,32b4 <_vfprintf_r+0x269c>
     fec:	00812783          	lw	x15,8(x2)
     ff0:	00a00713          	addi	x14,x0,10
     ff4:	00c79783          	lh	x15,12(x15)
     ff8:	01a7f793          	andi	x15,x15,26
     ffc:	cee79ce3          	bne	x15,x14,cf4 <_vfprintf_r+0xdc>
    1000:	00812783          	lw	x15,8(x2)
    1004:	00e79783          	lh	x15,14(x15)
    1008:	ce07c6e3          	blt	x15,x0,cf4 <_vfprintf_r+0xdc>
    100c:	01812683          	lw	x13,24(x2)
    1010:	00812583          	lw	x11,8(x2)
    1014:	03012503          	lw	x10,48(x2)
    1018:	00028613          	addi	x12,x5,0
    101c:	590020ef          	jal	x1,35ac <__sbprintf>
    1020:	00a12823          	sw	x10,16(x2)
    1024:	f6dff06f          	jal	x0,f90 <_vfprintf_r+0x378>
    1028:	00098513          	addi	x10,x19,0
    102c:	015060ef          	jal	x1,7840 <_localeconv_r>
    1030:	00452783          	lw	x15,4(x10)
    1034:	00078513          	addi	x10,x15,0
    1038:	04f12423          	sw	x15,72(x2)
    103c:	b51ff0ef          	jal	x1,b8c <strlen>
    1040:	00050793          	addi	x15,x10,0
    1044:	00098513          	addi	x10,x19,0
    1048:	00078a93          	addi	x21,x15,0
    104c:	04f12623          	sw	x15,76(x2)
    1050:	7f0060ef          	jal	x1,7840 <_localeconv_r>
    1054:	00852703          	lw	x14,8(x10)
    1058:	04e12023          	sw	x14,64(x2)
    105c:	000a8463          	beq	x21,x0,1064 <_vfprintf_r+0x44c>
    1060:	7a50006f          	jal	x0,2004 <_vfprintf_r+0x13ec>
    1064:	0004c883          	lbu	x17,0(x9)
    1068:	d61ff06f          	jal	x0,dc8 <_vfprintf_r+0x1b0>
    106c:	0004c883          	lbu	x17,0(x9)
    1070:	020beb93          	ori	x23,x23,32
    1074:	d55ff06f          	jal	x0,dc8 <_vfprintf_r+0x1b0>
    1078:	010beb93          	ori	x23,x23,16
    107c:	020bf713          	andi	x14,x23,32
    1080:	3a070063          	beq	x14,x0,1420 <_vfprintf_r+0x808>
    1084:	01812783          	lw	x15,24(x2)
    1088:	00778a93          	addi	x21,x15,7
    108c:	ff8afa93          	andi	x21,x21,-8
    1090:	004aa703          	lw	x14,4(x21)
    1094:	000aac83          	lw	x25,0(x21)
    1098:	008a8793          	addi	x15,x21,8
    109c:	00f12c23          	sw	x15,24(x2)
    10a0:	00070d13          	addi	x26,x14,0
    10a4:	3a074863          	blt	x14,x0,1454 <_vfprintf_r+0x83c>
    10a8:	fff00713          	addi	x14,x0,-1
    10ac:	000b8d93          	addi	x27,x23,0
    10b0:	4ee90663          	beq	x18,x14,159c <_vfprintf_r+0x984>
    10b4:	01ace733          	or	x14,x25,x26
    10b8:	f7fbfd93          	andi	x27,x23,-129
    10bc:	4e071063          	bne	x14,x0,159c <_vfprintf_r+0x984>
    10c0:	4e091463          	bne	x18,x0,15a8 <_vfprintf_r+0x990>
    10c4:	00000d13          	addi	x26,x0,0
    10c8:	000d8b93          	addi	x23,x27,0
    10cc:	1b010c13          	addi	x24,x2,432
    10d0:	0c714703          	lbu	x14,199(x2)
    10d4:	000d0c93          	addi	x25,x26,0
    10d8:	012d5463          	bge	x26,x18,10e0 <_vfprintf_r+0x4c8>
    10dc:	00090c93          	addi	x25,x18,0
    10e0:	00012a23          	sw	x0,20(x2)
    10e4:	02012623          	sw	x0,44(x2)
    10e8:	02012423          	sw	x0,40(x2)
    10ec:	02012023          	sw	x0,32(x2)
    10f0:	d4070ce3          	beq	x14,x0,e48 <_vfprintf_r+0x230>
    10f4:	001c8c93          	addi	x25,x25,1
    10f8:	d51ff06f          	jal	x0,e48 <_vfprintf_r+0x230>
    10fc:	010beb93          	ori	x23,x23,16
    1100:	020bf713          	andi	x14,x23,32
    1104:	2e070663          	beq	x14,x0,13f0 <_vfprintf_r+0x7d8>
    1108:	01812783          	lw	x15,24(x2)
    110c:	00778a93          	addi	x21,x15,7
    1110:	ff8afa93          	andi	x21,x21,-8
    1114:	000aac83          	lw	x25,0(x21)
    1118:	004aad03          	lw	x26,4(x21)
    111c:	008a8793          	addi	x15,x21,8
    1120:	00f12c23          	sw	x15,24(x2)
    1124:	bffbfd93          	andi	x27,x23,-1025
    1128:	00000693          	addi	x13,x0,0
    112c:	00000793          	addi	x15,x0,0
    1130:	0cf103a3          	sb	x15,199(x2)
    1134:	fff00793          	addi	x15,x0,-1
    1138:	34f90263          	beq	x18,x15,147c <_vfprintf_r+0x864>
    113c:	01ace733          	or	x14,x25,x26
    1140:	f7fdfb93          	andi	x23,x27,-129
    1144:	180718e3          	bne	x14,x0,1ad4 <_vfprintf_r+0xebc>
    1148:	72091c63          	bne	x18,x0,1880 <_vfprintf_r+0xc68>
    114c:	600692e3          	bne	x13,x0,1f50 <_vfprintf_r+0x1338>
    1150:	001dfd13          	andi	x26,x27,1
    1154:	1b010c13          	addi	x24,x2,432
    1158:	f60d0ce3          	beq	x26,x0,10d0 <_vfprintf_r+0x4b8>
    115c:	03000713          	addi	x14,x0,48
    1160:	1ae107a3          	sb	x14,431(x2)
    1164:	1af10c13          	addi	x24,x2,431
    1168:	f69ff06f          	jal	x0,10d0 <_vfprintf_r+0x4b8>
    116c:	41848933          	sub	x18,x9,x24
    1170:	bf849ee3          	bne	x9,x24,d6c <_vfprintf_r+0x154>
    1174:	0004c783          	lbu	x15,0(x9)
    1178:	c31ff06f          	jal	x0,da8 <_vfprintf_r+0x190>
    117c:	00812583          	lw	x11,8(x2)
    1180:	0e410613          	addi	x12,x2,228
    1184:	00098513          	addi	x10,x19,0
    1188:	5210b0ef          	jal	x1,cea8 <__sprint_r>
    118c:	de0518e3          	bne	x10,x0,f7c <_vfprintf_r+0x364>
    1190:	000b0413          	addi	x8,x22,0
    1194:	c05ff06f          	jal	x0,d98 <_vfprintf_r+0x180>
    1198:	008bf713          	andi	x14,x23,8
    119c:	60071ce3          	bne	x14,x0,1fb4 <_vfprintf_r+0x139c>
    11a0:	01812783          	lw	x15,24(x2)
    11a4:	0b010513          	addi	x10,x2,176
    11a8:	01112a23          	sw	x17,20(x2)
    11ac:	00778a93          	addi	x21,x15,7
    11b0:	ff8afa93          	andi	x21,x21,-8
    11b4:	000aa583          	lw	x11,0(x21)
    11b8:	004aa603          	lw	x12,4(x21)
    11bc:	008a8793          	addi	x15,x21,8
    11c0:	00f12c23          	sw	x15,24(x2)
    11c4:	1a9120ef          	jal	x1,13b6c <__extenddftf2>
    11c8:	0b012583          	lw	x11,176(x2)
    11cc:	0b412603          	lw	x12,180(x2)
    11d0:	0b812683          	lw	x13,184(x2)
    11d4:	0bc12703          	lw	x14,188(x2)
    11d8:	01412883          	lw	x17,20(x2)
    11dc:	0f010513          	addi	x10,x2,240
    11e0:	01112a23          	sw	x17,20(x2)
    11e4:	0ee12e23          	sw	x14,252(x2)
    11e8:	0eb12823          	sw	x11,240(x2)
    11ec:	0ec12a23          	sw	x12,244(x2)
    11f0:	0ed12c23          	sw	x13,248(x2)
    11f4:	5cc060ef          	jal	x1,77c0 <_ldcheck>
    11f8:	0ca12623          	sw	x10,204(x2)
    11fc:	00200713          	addi	x14,x0,2
    1200:	01412883          	lw	x17,20(x2)
    1204:	00e51463          	bne	x10,x14,120c <_vfprintf_r+0x5f4>
    1208:	1d40106f          	jal	x0,23dc <_vfprintf_r+0x17c4>
    120c:	00100713          	addi	x14,x0,1
    1210:	00e51463          	bne	x10,x14,1218 <_vfprintf_r+0x600>
    1214:	3280106f          	jal	x0,253c <_vfprintf_r+0x1924>
    1218:	06100713          	addi	x14,x0,97
    121c:	00e89463          	bne	x17,x14,1224 <_vfprintf_r+0x60c>
    1220:	7410106f          	jal	x0,3160 <_vfprintf_r+0x2548>
    1224:	04100713          	addi	x14,x0,65
    1228:	00e89463          	bne	x17,x14,1230 <_vfprintf_r+0x618>
    122c:	12d0106f          	jal	x0,2b58 <_vfprintf_r+0x1f40>
    1230:	fff00713          	addi	x14,x0,-1
    1234:	00e91463          	bne	x18,x14,123c <_vfprintf_r+0x624>
    1238:	1d80206f          	jal	x0,3410 <_vfprintf_r+0x27f8>
    123c:	fdf8f713          	andi	x14,x17,-33
    1240:	04700693          	addi	x13,x0,71
    1244:	00d71463          	bne	x14,x13,124c <_vfprintf_r+0x634>
    1248:	1b80206f          	jal	x0,3400 <_vfprintf_r+0x27e8>
    124c:	0fc12d83          	lw	x27,252(x2)
    1250:	100be793          	ori	x15,x23,256
    1254:	04f12e23          	sw	x15,92(x2)
    1258:	03712623          	sw	x23,44(x2)
    125c:	0f012f03          	lw	x30,240(x2)
    1260:	0f412e83          	lw	x29,244(x2)
    1264:	0f812e03          	lw	x28,248(x2)
    1268:	000dd463          	bge	x27,x0,1270 <_vfprintf_r+0x658>
    126c:	6a50106f          	jal	x0,3110 <_vfprintf_r+0x24f8>
    1270:	06012023          	sw	x0,96(x2)
    1274:	00012a23          	sw	x0,20(x2)
    1278:	fbf88793          	addi	x15,x17,-65
    127c:	02500713          	addi	x14,x0,37
    1280:	00f77463          	bgeu	x14,x15,1288 <_vfprintf_r+0x670>
    1284:	5dc0106f          	jal	x0,2860 <_vfprintf_r+0x1c48>
    1288:	00014737          	lui	x14,0x14
    128c:	00279793          	slli	x15,x15,0x2
    1290:	6e070713          	addi	x14,x14,1760 # 146e0 <no_exception_handler_msg+0x28e>
    1294:	00e787b3          	add	x15,x15,x14
    1298:	0007a783          	lw	x15,0(x15)
    129c:	00078067          	jalr	x0,0(x15)
    12a0:	00812583          	lw	x11,8(x2)
    12a4:	0e410613          	addi	x12,x2,228
    12a8:	00098513          	addi	x10,x19,0
    12ac:	05112a23          	sw	x17,84(x2)
    12b0:	05f12823          	sw	x31,80(x2)
    12b4:	3f50b0ef          	jal	x1,cea8 <__sprint_r>
    12b8:	000512e3          	bne	x10,x0,1abc <_vfprintf_r+0xea4>
    12bc:	05412883          	lw	x17,84(x2)
    12c0:	05012f83          	lw	x31,80(x2)
    12c4:	000b0413          	addi	x8,x22,0
    12c8:	bd9ff06f          	jal	x0,ea0 <_vfprintf_r+0x288>
    12cc:	02412783          	lw	x15,36(x2)
    12d0:	00100593          	addi	x11,x0,1
    12d4:	00840d13          	addi	x26,x8,8
    12d8:	36f5d4e3          	bge	x11,x15,1e40 <_vfprintf_r+0x1228>
    12dc:	0ec12703          	lw	x14,236(x2)
    12e0:	0e812603          	lw	x12,232(x2)
    12e4:	00100593          	addi	x11,x0,1
    12e8:	00170713          	addi	x14,x14,1
    12ec:	00160613          	addi	x12,x12,1
    12f0:	00b42223          	sw	x11,4(x8)
    12f4:	01842023          	sw	x24,0(x8)
    12f8:	0ee12623          	sw	x14,236(x2)
    12fc:	0ec12423          	sw	x12,232(x2)
    1300:	00700593          	addi	x11,x0,7
    1304:	6ac5c6e3          	blt	x11,x12,21b0 <_vfprintf_r+0x1598>
    1308:	03412783          	lw	x15,52(x2)
    130c:	00160913          	addi	x18,x12,1
    1310:	0f212423          	sw	x18,232(x2)
    1314:	00e78db3          	add	x27,x15,x14
    1318:	03812703          	lw	x14,56(x2)
    131c:	00fd2223          	sw	x15,4(x26)
    1320:	0fb12623          	sw	x27,236(x2)
    1324:	00ed2023          	sw	x14,0(x26)
    1328:	00700713          	addi	x14,x0,7
    132c:	008d0d13          	addi	x26,x26,8
    1330:	6b2742e3          	blt	x14,x18,21d4 <_vfprintf_r+0x15bc>
    1334:	0f012703          	lw	x14,240(x2)
    1338:	0a010593          	addi	x11,x2,160
    133c:	0b010513          	addi	x10,x2,176
    1340:	0ae12823          	sw	x14,176(x2)
    1344:	0f412703          	lw	x14,244(x2)
    1348:	0a012023          	sw	x0,160(x2)
    134c:	0a012223          	sw	x0,164(x2)
    1350:	0ae12a23          	sw	x14,180(x2)
    1354:	0f812703          	lw	x14,248(x2)
    1358:	0a012423          	sw	x0,168(x2)
    135c:	0a012623          	sw	x0,172(x2)
    1360:	0ae12c23          	sw	x14,184(x2)
    1364:	0fc12703          	lw	x14,252(x2)
    1368:	0ae12e23          	sw	x14,188(x2)
    136c:	5110f0ef          	jal	x1,1107c <__eqtf2>
    1370:	02412783          	lw	x15,36(x2)
    1374:	fff78413          	addi	x8,x15,-1
    1378:	30050ee3          	beq	x10,x0,1e94 <_vfprintf_r+0x127c>
    137c:	001c0293          	addi	x5,x24,1
    1380:	00190913          	addi	x18,x18,1
    1384:	008d8db3          	add	x27,x27,x8
    1388:	005d2023          	sw	x5,0(x26)
    138c:	008d2223          	sw	x8,4(x26)
    1390:	0fb12623          	sw	x27,236(x2)
    1394:	0f212423          	sw	x18,232(x2)
    1398:	00700713          	addi	x14,x0,7
    139c:	008d0d13          	addi	x26,x26,8
    13a0:	2d2748e3          	blt	x14,x18,1e70 <_vfprintf_r+0x1258>
    13a4:	04412783          	lw	x15,68(x2)
    13a8:	0d410593          	addi	x11,x2,212
    13ac:	00190613          	addi	x12,x18,1
    13b0:	01b78733          	add	x14,x15,x27
    13b4:	00bd2023          	sw	x11,0(x26)
    13b8:	00fd2223          	sw	x15,4(x26)
    13bc:	0ee12623          	sw	x14,236(x2)
    13c0:	0ec12423          	sw	x12,232(x2)
    13c4:	00700593          	addi	x11,x0,7
    13c8:	008d0413          	addi	x8,x26,8
    13cc:	b4c5d8e3          	bge	x11,x12,f1c <_vfprintf_r+0x304>
    13d0:	00812583          	lw	x11,8(x2)
    13d4:	0e410613          	addi	x12,x2,228
    13d8:	00098513          	addi	x10,x19,0
    13dc:	2cd0b0ef          	jal	x1,cea8 <__sprint_r>
    13e0:	6c051e63          	bne	x10,x0,1abc <_vfprintf_r+0xea4>
    13e4:	0ec12703          	lw	x14,236(x2)
    13e8:	000b0413          	addi	x8,x22,0
    13ec:	b31ff06f          	jal	x0,f1c <_vfprintf_r+0x304>
    13f0:	01812783          	lw	x15,24(x2)
    13f4:	010bf713          	andi	x14,x23,16
    13f8:	0007ac83          	lw	x25,0(x15)
    13fc:	00478793          	addi	x15,x15,4
    1400:	00f12c23          	sw	x15,24(x2)
    1404:	38071ae3          	bne	x14,x0,1f98 <_vfprintf_r+0x1380>
    1408:	040bf713          	andi	x14,x23,64
    140c:	380702e3          	beq	x14,x0,1f90 <_vfprintf_r+0x1378>
    1410:	010c9c93          	slli	x25,x25,0x10
    1414:	010cdc93          	srli	x25,x25,0x10
    1418:	00000d13          	addi	x26,x0,0
    141c:	d09ff06f          	jal	x0,1124 <_vfprintf_r+0x50c>
    1420:	01812783          	lw	x15,24(x2)
    1424:	010bf713          	andi	x14,x23,16
    1428:	0007ac83          	lw	x25,0(x15)
    142c:	00478793          	addi	x15,x15,4
    1430:	00f12c23          	sw	x15,24(x2)
    1434:	36071ae3          	bne	x14,x0,1fa8 <_vfprintf_r+0x1390>
    1438:	040bf713          	andi	x14,x23,64
    143c:	360702e3          	beq	x14,x0,1fa0 <_vfprintf_r+0x1388>
    1440:	010c9c93          	slli	x25,x25,0x10
    1444:	410cdc93          	srai	x25,x25,0x10
    1448:	41fcdd13          	srai	x26,x25,0x1f
    144c:	000d0713          	addi	x14,x26,0
    1450:	c4075ce3          	bge	x14,x0,10a8 <_vfprintf_r+0x490>
    1454:	02d00793          	addi	x15,x0,45
    1458:	01903733          	sltu	x14,x0,x25
    145c:	41a00d33          	sub	x26,x0,x26
    1460:	0cf103a3          	sb	x15,199(x2)
    1464:	fff00793          	addi	x15,x0,-1
    1468:	40ed0d33          	sub	x26,x26,x14
    146c:	41900cb3          	sub	x25,x0,x25
    1470:	000b8d93          	addi	x27,x23,0
    1474:	00100693          	addi	x13,x0,1
    1478:	ccf912e3          	bne	x18,x15,113c <_vfprintf_r+0x524>
    147c:	00100793          	addi	x15,x0,1
    1480:	10f68e63          	beq	x13,x15,159c <_vfprintf_r+0x984>
    1484:	00200793          	addi	x15,x0,2
    1488:	40f68863          	beq	x13,x15,1898 <_vfprintf_r+0xc80>
    148c:	1b010c13          	addi	x24,x2,432
    1490:	01dd1713          	slli	x14,x26,0x1d
    1494:	007cf793          	andi	x15,x25,7
    1498:	003cdc93          	srli	x25,x25,0x3
    149c:	03078793          	addi	x15,x15,48
    14a0:	01976cb3          	or	x25,x14,x25
    14a4:	003d5d13          	srli	x26,x26,0x3
    14a8:	fefc0fa3          	sb	x15,-1(x24)
    14ac:	01ace733          	or	x14,x25,x26
    14b0:	000c0693          	addi	x13,x24,0
    14b4:	fffc0c13          	addi	x24,x24,-1
    14b8:	fc071ce3          	bne	x14,x0,1490 <_vfprintf_r+0x878>
    14bc:	001df713          	andi	x14,x27,1
    14c0:	40070663          	beq	x14,x0,18cc <_vfprintf_r+0xcb4>
    14c4:	03000713          	addi	x14,x0,48
    14c8:	40e78263          	beq	x15,x14,18cc <_vfprintf_r+0xcb4>
    14cc:	ffe68693          	addi	x13,x13,-2
    14d0:	1b010793          	addi	x15,x2,432
    14d4:	feec0fa3          	sb	x14,-1(x24)
    14d8:	40d78d33          	sub	x26,x15,x13
    14dc:	000d8b93          	addi	x23,x27,0
    14e0:	00068c13          	addi	x24,x13,0
    14e4:	bedff06f          	jal	x0,10d0 <_vfprintf_r+0x4b8>
    14e8:	03012503          	lw	x10,48(x2)
    14ec:	47d020ef          	jal	x1,4168 <__sinit>
    14f0:	00c12283          	lw	x5,12(x2)
    14f4:	fa8ff06f          	jal	x0,c9c <_vfprintf_r+0x84>
    14f8:	01812783          	lw	x15,24(x2)
    14fc:	0c0103a3          	sb	x0,199(x2)
    1500:	00100c93          	addi	x25,x0,1
    1504:	0007a703          	lw	x14,0(x15)
    1508:	00478793          	addi	x15,x15,4
    150c:	00f12c23          	sw	x15,24(x2)
    1510:	14e10623          	sb	x14,332(x2)
    1514:	00100d13          	addi	x26,x0,1
    1518:	14c10c13          	addi	x24,x2,332
    151c:	919ff06f          	jal	x0,e34 <_vfprintf_r+0x21c>
    1520:	01812783          	lw	x15,24(x2)
    1524:	0c0103a3          	sb	x0,199(x2)
    1528:	0007ac03          	lw	x24,0(x15)
    152c:	00478a93          	addi	x21,x15,4
    1530:	3a0c0ee3          	beq	x24,x0,20ec <_vfprintf_r+0x14d4>
    1534:	fff00713          	addi	x14,x0,-1
    1538:	00e91463          	bne	x18,x14,1540 <_vfprintf_r+0x928>
    153c:	7b90006f          	jal	x0,24f4 <_vfprintf_r+0x18dc>
    1540:	00090613          	addi	x12,x18,0
    1544:	00000593          	addi	x11,x0,0
    1548:	000c0513          	addi	x10,x24,0
    154c:	01112c23          	sw	x17,24(x2)
    1550:	64d060ef          	jal	x1,839c <memchr>
    1554:	00a12a23          	sw	x10,20(x2)
    1558:	01812883          	lw	x17,24(x2)
    155c:	00051463          	bne	x10,x0,1564 <_vfprintf_r+0x94c>
    1560:	43d0106f          	jal	x0,319c <_vfprintf_r+0x2584>
    1564:	01412783          	lw	x15,20(x2)
    1568:	0c714703          	lbu	x14,199(x2)
    156c:	01512c23          	sw	x21,24(x2)
    1570:	41878d33          	sub	x26,x15,x24
    1574:	fffd4693          	xori	x13,x26,-1
    1578:	41f6d693          	srai	x13,x13,0x1f
    157c:	00012a23          	sw	x0,20(x2)
    1580:	02012623          	sw	x0,44(x2)
    1584:	02012423          	sw	x0,40(x2)
    1588:	02012023          	sw	x0,32(x2)
    158c:	00dd7cb3          	and	x25,x26,x13
    1590:	00000913          	addi	x18,x0,0
    1594:	b60710e3          	bne	x14,x0,10f4 <_vfprintf_r+0x4dc>
    1598:	8b1ff06f          	jal	x0,e48 <_vfprintf_r+0x230>
    159c:	460d16e3          	bne	x26,x0,2208 <_vfprintf_r+0x15f0>
    15a0:	00900793          	addi	x15,x0,9
    15a4:	4797e2e3          	bltu	x15,x25,2208 <_vfprintf_r+0x15f0>
    15a8:	030c8c93          	addi	x25,x25,48
    15ac:	1b9107a3          	sb	x25,431(x2)
    15b0:	000d8b93          	addi	x23,x27,0
    15b4:	00100d13          	addi	x26,x0,1
    15b8:	1af10c13          	addi	x24,x2,431
    15bc:	b15ff06f          	jal	x0,10d0 <_vfprintf_r+0x4b8>
    15c0:	01812783          	lw	x15,24(x2)
    15c4:	0007aa03          	lw	x20,0(x15)
    15c8:	00478793          	addi	x15,x15,4
    15cc:	1a0a50e3          	bge	x20,x0,1f6c <_vfprintf_r+0x1354>
    15d0:	41400a33          	sub	x20,x0,x20
    15d4:	00f12c23          	sw	x15,24(x2)
    15d8:	0004c883          	lbu	x17,0(x9)
    15dc:	004beb93          	ori	x23,x23,4
    15e0:	fe8ff06f          	jal	x0,dc8 <_vfprintf_r+0x1b0>
    15e4:	02b00793          	addi	x15,x0,43
    15e8:	0004c883          	lbu	x17,0(x9)
    15ec:	0cf103a3          	sb	x15,199(x2)
    15f0:	fd8ff06f          	jal	x0,dc8 <_vfprintf_r+0x1b0>
    15f4:	0004c883          	lbu	x17,0(x9)
    15f8:	080beb93          	ori	x23,x23,128
    15fc:	fccff06f          	jal	x0,dc8 <_vfprintf_r+0x1b0>
    1600:	0004c883          	lbu	x17,0(x9)
    1604:	02a00793          	addi	x15,x0,42
    1608:	00148713          	addi	x14,x9,1
    160c:	00f89463          	bne	x17,x15,1614 <_vfprintf_r+0x9fc>
    1610:	7410106f          	jal	x0,3550 <_vfprintf_r+0x2938>
    1614:	fd088793          	addi	x15,x17,-48
    1618:	00900613          	addi	x12,x0,9
    161c:	00070493          	addi	x9,x14,0
    1620:	00000913          	addi	x18,x0,0
    1624:	00900693          	addi	x13,x0,9
    1628:	faf66263          	bltu	x12,x15,dcc <_vfprintf_r+0x1b4>
    162c:	0004c883          	lbu	x17,0(x9)
    1630:	00291713          	slli	x14,x18,0x2
    1634:	01270933          	add	x18,x14,x18
    1638:	00191913          	slli	x18,x18,0x1
    163c:	00f90933          	add	x18,x18,x15
    1640:	fd088793          	addi	x15,x17,-48
    1644:	00148493          	addi	x9,x9,1
    1648:	fef6f2e3          	bgeu	x13,x15,162c <_vfprintf_r+0xa14>
    164c:	f80ff06f          	jal	x0,dcc <_vfprintf_r+0x1b4>
    1650:	0004c883          	lbu	x17,0(x9)
    1654:	001beb93          	ori	x23,x23,1
    1658:	f70ff06f          	jal	x0,dc8 <_vfprintf_r+0x1b0>
    165c:	0c714783          	lbu	x15,199(x2)
    1660:	0004c883          	lbu	x17,0(x9)
    1664:	f6079263          	bne	x15,x0,dc8 <_vfprintf_r+0x1b0>
    1668:	02000793          	addi	x15,x0,32
    166c:	0cf103a3          	sb	x15,199(x2)
    1670:	f58ff06f          	jal	x0,dc8 <_vfprintf_r+0x1b0>
    1674:	0004c883          	lbu	x17,0(x9)
    1678:	008beb93          	ori	x23,x23,8
    167c:	f4cff06f          	jal	x0,dc8 <_vfprintf_r+0x1b0>
    1680:	010bed93          	ori	x27,x23,16
    1684:	020df793          	andi	x15,x27,32
    1688:	08078ae3          	beq	x15,x0,1f1c <_vfprintf_r+0x1304>
    168c:	01812783          	lw	x15,24(x2)
    1690:	00100693          	addi	x13,x0,1
    1694:	00778a93          	addi	x21,x15,7
    1698:	ff8afa93          	andi	x21,x21,-8
    169c:	008a8793          	addi	x15,x21,8
    16a0:	000aac83          	lw	x25,0(x21)
    16a4:	004aad03          	lw	x26,4(x21)
    16a8:	00f12c23          	sw	x15,24(x2)
    16ac:	a81ff06f          	jal	x0,112c <_vfprintf_r+0x514>
    16b0:	01812703          	lw	x14,24(x2)
    16b4:	ffff87b7          	lui	x15,0xffff8
    16b8:	8307c793          	xori	x15,x15,-2000
    16bc:	0cf11423          	sh	x15,200(x2)
    16c0:	00470793          	addi	x15,x14,4
    16c4:	00f12c23          	sw	x15,24(x2)
    16c8:	000147b7          	lui	x15,0x14
    16cc:	54078793          	addi	x15,x15,1344 # 14540 <no_exception_handler_msg+0xee>
    16d0:	00072c83          	lw	x25,0(x14)
    16d4:	00000d13          	addi	x26,x0,0
    16d8:	002bed93          	ori	x27,x23,2
    16dc:	02f12e23          	sw	x15,60(x2)
    16e0:	00200693          	addi	x13,x0,2
    16e4:	07800893          	addi	x17,x0,120
    16e8:	a45ff06f          	jal	x0,112c <_vfprintf_r+0x514>
    16ec:	0004c883          	lbu	x17,0(x9)
    16f0:	06c00793          	addi	x15,x0,108
    16f4:	1ef884e3          	beq	x17,x15,20dc <_vfprintf_r+0x14c4>
    16f8:	010beb93          	ori	x23,x23,16
    16fc:	eccff06f          	jal	x0,dc8 <_vfprintf_r+0x1b0>
    1700:	0004c883          	lbu	x17,0(x9)
    1704:	06800793          	addi	x15,x0,104
    1708:	18f88ae3          	beq	x17,x15,209c <_vfprintf_r+0x1484>
    170c:	040beb93          	ori	x23,x23,64
    1710:	eb8ff06f          	jal	x0,dc8 <_vfprintf_r+0x1b0>
    1714:	020bf713          	andi	x14,x23,32
    1718:	0c0700e3          	beq	x14,x0,1fd8 <_vfprintf_r+0x13c0>
    171c:	01812783          	lw	x15,24(x2)
    1720:	01012683          	lw	x13,16(x2)
    1724:	0007a783          	lw	x15,0(x15)
    1728:	41f6d713          	srai	x14,x13,0x1f
    172c:	00d7a023          	sw	x13,0(x15)
    1730:	00e7a223          	sw	x14,4(x15)
    1734:	01812783          	lw	x15,24(x2)
    1738:	00048c13          	addi	x24,x9,0
    173c:	00478793          	addi	x15,x15,4
    1740:	00f12c23          	sw	x15,24(x2)
    1744:	825ff06f          	jal	x0,f68 <_vfprintf_r+0x350>
    1748:	06500713          	addi	x14,x0,101
    174c:	b91750e3          	bge	x14,x17,12cc <_vfprintf_r+0x6b4>
    1750:	0f012703          	lw	x14,240(x2)
    1754:	0a010593          	addi	x11,x2,160
    1758:	0b010513          	addi	x10,x2,176
    175c:	0ae12823          	sw	x14,176(x2)
    1760:	0f412703          	lw	x14,244(x2)
    1764:	0a012023          	sw	x0,160(x2)
    1768:	0a012223          	sw	x0,164(x2)
    176c:	0ae12a23          	sw	x14,180(x2)
    1770:	0f812703          	lw	x14,248(x2)
    1774:	0a012423          	sw	x0,168(x2)
    1778:	0a012623          	sw	x0,172(x2)
    177c:	0ae12c23          	sw	x14,184(x2)
    1780:	0fc12703          	lw	x14,252(x2)
    1784:	0ae12e23          	sw	x14,188(x2)
    1788:	0f50f0ef          	jal	x1,1107c <__eqtf2>
    178c:	52051463          	bne	x10,x0,1cb4 <_vfprintf_r+0x109c>
    1790:	0ec12703          	lw	x14,236(x2)
    1794:	0e812603          	lw	x12,232(x2)
    1798:	000145b7          	lui	x11,0x14
    179c:	57058593          	addi	x11,x11,1392 # 14570 <no_exception_handler_msg+0x11e>
    17a0:	00b42023          	sw	x11,0(x8)
    17a4:	00170713          	addi	x14,x14,1
    17a8:	00100593          	addi	x11,x0,1
    17ac:	00160613          	addi	x12,x12,1
    17b0:	00b42223          	sw	x11,4(x8)
    17b4:	0ee12623          	sw	x14,236(x2)
    17b8:	0ec12423          	sw	x12,232(x2)
    17bc:	00700593          	addi	x11,x0,7
    17c0:	00840413          	addi	x8,x8,8
    17c4:	3cc5c8e3          	blt	x11,x12,2394 <_vfprintf_r+0x177c>
    17c8:	0cc12603          	lw	x12,204(x2)
    17cc:	02412783          	lw	x15,36(x2)
    17d0:	78f65663          	bge	x12,x15,1f5c <_vfprintf_r+0x1344>
    17d4:	03412783          	lw	x15,52(x2)
    17d8:	0e812603          	lw	x12,232(x2)
    17dc:	03812683          	lw	x13,56(x2)
    17e0:	00e78733          	add	x14,x15,x14
    17e4:	00160613          	addi	x12,x12,1
    17e8:	00d42023          	sw	x13,0(x8)
    17ec:	00f42223          	sw	x15,4(x8)
    17f0:	0ee12623          	sw	x14,236(x2)
    17f4:	0ec12423          	sw	x12,232(x2)
    17f8:	00700593          	addi	x11,x0,7
    17fc:	00840413          	addi	x8,x8,8
    1800:	0ac5cee3          	blt	x11,x12,20bc <_vfprintf_r+0x14a4>
    1804:	02412783          	lw	x15,36(x2)
    1808:	fff78913          	addi	x18,x15,-1
    180c:	f1205863          	bge	x0,x18,f1c <_vfprintf_r+0x304>
    1810:	00014837          	lui	x16,0x14
    1814:	01000593          	addi	x11,x0,16
    1818:	0e812603          	lw	x12,232(x2)
    181c:	77880a93          	addi	x21,x16,1912 # 14778 <zeroes.0>
    1820:	3925dae3          	bge	x11,x18,23b4 <_vfprintf_r+0x179c>
    1824:	00812c03          	lw	x24,8(x2)
    1828:	01000d13          	addi	x26,x0,16
    182c:	00700d93          	addi	x27,x0,7
    1830:	00c0006f          	jal	x0,183c <_vfprintf_r+0xc24>
    1834:	ff090913          	addi	x18,x18,-16
    1838:	372d5ee3          	bge	x26,x18,23b4 <_vfprintf_r+0x179c>
    183c:	01070713          	addi	x14,x14,16
    1840:	00160613          	addi	x12,x12,1
    1844:	01542023          	sw	x21,0(x8)
    1848:	01a42223          	sw	x26,4(x8)
    184c:	0ee12623          	sw	x14,236(x2)
    1850:	0ec12423          	sw	x12,232(x2)
    1854:	00840413          	addi	x8,x8,8
    1858:	fccddee3          	bge	x27,x12,1834 <_vfprintf_r+0xc1c>
    185c:	0e410613          	addi	x12,x2,228
    1860:	000c0593          	addi	x11,x24,0
    1864:	00098513          	addi	x10,x19,0
    1868:	6400b0ef          	jal	x1,cea8 <__sprint_r>
    186c:	24051863          	bne	x10,x0,1abc <_vfprintf_r+0xea4>
    1870:	0ec12703          	lw	x14,236(x2)
    1874:	0e812603          	lw	x12,232(x2)
    1878:	000b0413          	addi	x8,x22,0
    187c:	fb9ff06f          	jal	x0,1834 <_vfprintf_r+0xc1c>
    1880:	00100713          	addi	x14,x0,1
    1884:	00e69463          	bne	x13,x14,188c <_vfprintf_r+0xc74>
    1888:	17d0106f          	jal	x0,3204 <_vfprintf_r+0x25ec>
    188c:	00200713          	addi	x14,x0,2
    1890:	000b8d93          	addi	x27,x23,0
    1894:	bee69ce3          	bne	x13,x14,148c <_vfprintf_r+0x874>
    1898:	03c12683          	lw	x13,60(x2)
    189c:	1b010c13          	addi	x24,x2,432
    18a0:	00fcf793          	andi	x15,x25,15
    18a4:	00f687b3          	add	x15,x13,x15
    18a8:	0007c703          	lbu	x14,0(x15)
    18ac:	004cdc93          	srli	x25,x25,0x4
    18b0:	01cd1793          	slli	x15,x26,0x1c
    18b4:	0197ecb3          	or	x25,x15,x25
    18b8:	004d5d13          	srli	x26,x26,0x4
    18bc:	feec0fa3          	sb	x14,-1(x24)
    18c0:	01ace7b3          	or	x15,x25,x26
    18c4:	fffc0c13          	addi	x24,x24,-1
    18c8:	fc079ce3          	bne	x15,x0,18a0 <_vfprintf_r+0xc88>
    18cc:	1b010793          	addi	x15,x2,432
    18d0:	41878d33          	sub	x26,x15,x24
    18d4:	000d8b93          	addi	x23,x27,0
    18d8:	ff8ff06f          	jal	x0,10d0 <_vfprintf_r+0x4b8>
    18dc:	419a0db3          	sub	x27,x20,x25
    18e0:	e1b05063          	bge	x0,x27,ee0 <_vfprintf_r+0x2c8>
    18e4:	00014837          	lui	x16,0x14
    18e8:	01000513          	addi	x10,x0,16
    18ec:	0ec12583          	lw	x11,236(x2)
    18f0:	0e812603          	lw	x12,232(x2)
    18f4:	77880a93          	addi	x21,x16,1912 # 14778 <zeroes.0>
    18f8:	09b55463          	bge	x10,x27,1980 <_vfprintf_r+0xd68>
    18fc:	00040793          	addi	x15,x8,0
    1900:	01000e93          	addi	x29,x0,16
    1904:	000a8413          	addi	x8,x21,0
    1908:	00700f13          	addi	x30,x0,7
    190c:	00090a93          	addi	x21,x18,0
    1910:	00088913          	addi	x18,x17,0
    1914:	00c0006f          	jal	x0,1920 <_vfprintf_r+0xd08>
    1918:	ff0d8d93          	addi	x27,x27,-16
    191c:	05beda63          	bge	x29,x27,1970 <_vfprintf_r+0xd58>
    1920:	01058593          	addi	x11,x11,16
    1924:	00160613          	addi	x12,x12,1
    1928:	0087a023          	sw	x8,0(x15)
    192c:	01d7a223          	sw	x29,4(x15)
    1930:	0eb12623          	sw	x11,236(x2)
    1934:	0ec12423          	sw	x12,232(x2)
    1938:	00878793          	addi	x15,x15,8
    193c:	fccf5ee3          	bge	x30,x12,1918 <_vfprintf_r+0xd00>
    1940:	00812583          	lw	x11,8(x2)
    1944:	0e410613          	addi	x12,x2,228
    1948:	00098513          	addi	x10,x19,0
    194c:	55c0b0ef          	jal	x1,cea8 <__sprint_r>
    1950:	16051663          	bne	x10,x0,1abc <_vfprintf_r+0xea4>
    1954:	01000e93          	addi	x29,x0,16
    1958:	ff0d8d93          	addi	x27,x27,-16
    195c:	0ec12583          	lw	x11,236(x2)
    1960:	0e812603          	lw	x12,232(x2)
    1964:	000b0793          	addi	x15,x22,0
    1968:	00700f13          	addi	x30,x0,7
    196c:	fbbecae3          	blt	x29,x27,1920 <_vfprintf_r+0xd08>
    1970:	00090893          	addi	x17,x18,0
    1974:	000a8913          	addi	x18,x21,0
    1978:	00040a93          	addi	x21,x8,0
    197c:	00078413          	addi	x8,x15,0
    1980:	00bd85b3          	add	x11,x27,x11
    1984:	00160613          	addi	x12,x12,1
    1988:	01542023          	sw	x21,0(x8)
    198c:	01b42223          	sw	x27,4(x8)
    1990:	0eb12623          	sw	x11,236(x2)
    1994:	0ec12423          	sw	x12,232(x2)
    1998:	00700713          	addi	x14,x0,7
    199c:	00840413          	addi	x8,x8,8
    19a0:	d4c75063          	bge	x14,x12,ee0 <_vfprintf_r+0x2c8>
    19a4:	00812583          	lw	x11,8(x2)
    19a8:	0e410613          	addi	x12,x2,228
    19ac:	00098513          	addi	x10,x19,0
    19b0:	05112823          	sw	x17,80(x2)
    19b4:	4f40b0ef          	jal	x1,cea8 <__sprint_r>
    19b8:	10051263          	bne	x10,x0,1abc <_vfprintf_r+0xea4>
    19bc:	05012883          	lw	x17,80(x2)
    19c0:	000b0413          	addi	x8,x22,0
    19c4:	d1cff06f          	jal	x0,ee0 <_vfprintf_r+0x2c8>
    19c8:	00014837          	lui	x16,0x14
    19cc:	01000713          	addi	x14,x0,16
    19d0:	0ec12583          	lw	x11,236(x2)
    19d4:	0e812603          	lw	x12,232(x2)
    19d8:	77880a93          	addi	x21,x16,1912 # 14778 <zeroes.0>
    19dc:	09275263          	bge	x14,x18,1a60 <_vfprintf_r+0xe48>
    19e0:	00040793          	addi	x15,x8,0
    19e4:	00c12a83          	lw	x21,12(x2)
    19e8:	00090413          	addi	x8,x18,0
    19ec:	01000713          	addi	x14,x0,16
    19f0:	00700d93          	addi	x27,x0,7
    19f4:	00088913          	addi	x18,x17,0
    19f8:	00c0006f          	jal	x0,1a04 <_vfprintf_r+0xdec>
    19fc:	ff040413          	addi	x8,x8,-16
    1a00:	04875a63          	bge	x14,x8,1a54 <_vfprintf_r+0xe3c>
    1a04:	00c12683          	lw	x13,12(x2)
    1a08:	01058593          	addi	x11,x11,16
    1a0c:	00160613          	addi	x12,x12,1
    1a10:	00d7a023          	sw	x13,0(x15)
    1a14:	00e7a223          	sw	x14,4(x15)
    1a18:	0eb12623          	sw	x11,236(x2)
    1a1c:	0ec12423          	sw	x12,232(x2)
    1a20:	00878793          	addi	x15,x15,8
    1a24:	fccddce3          	bge	x27,x12,19fc <_vfprintf_r+0xde4>
    1a28:	00812583          	lw	x11,8(x2)
    1a2c:	0e410613          	addi	x12,x2,228
    1a30:	00098513          	addi	x10,x19,0
    1a34:	4740b0ef          	jal	x1,cea8 <__sprint_r>
    1a38:	08051263          	bne	x10,x0,1abc <_vfprintf_r+0xea4>
    1a3c:	01000713          	addi	x14,x0,16
    1a40:	ff040413          	addi	x8,x8,-16
    1a44:	0ec12583          	lw	x11,236(x2)
    1a48:	0e812603          	lw	x12,232(x2)
    1a4c:	000b0793          	addi	x15,x22,0
    1a50:	fa874ae3          	blt	x14,x8,1a04 <_vfprintf_r+0xdec>
    1a54:	00090893          	addi	x17,x18,0
    1a58:	00040913          	addi	x18,x8,0
    1a5c:	00078413          	addi	x8,x15,0
    1a60:	00b905b3          	add	x11,x18,x11
    1a64:	00160613          	addi	x12,x12,1
    1a68:	01542023          	sw	x21,0(x8)
    1a6c:	01242223          	sw	x18,4(x8)
    1a70:	0eb12623          	sw	x11,236(x2)
    1a74:	0ec12423          	sw	x12,232(x2)
    1a78:	00700713          	addi	x14,x0,7
    1a7c:	00840413          	addi	x8,x8,8
    1a80:	c6c75463          	bge	x14,x12,ee8 <_vfprintf_r+0x2d0>
    1a84:	00812583          	lw	x11,8(x2)
    1a88:	0e410613          	addi	x12,x2,228
    1a8c:	00098513          	addi	x10,x19,0
    1a90:	05112823          	sw	x17,80(x2)
    1a94:	4140b0ef          	jal	x1,cea8 <__sprint_r>
    1a98:	02051263          	bne	x10,x0,1abc <_vfprintf_r+0xea4>
    1a9c:	05012883          	lw	x17,80(x2)
    1aa0:	000b0413          	addi	x8,x22,0
    1aa4:	c44ff06f          	jal	x0,ee8 <_vfprintf_r+0x2d0>
    1aa8:	00812583          	lw	x11,8(x2)
    1aac:	0e410613          	addi	x12,x2,228
    1ab0:	00098513          	addi	x10,x19,0
    1ab4:	3f40b0ef          	jal	x1,cea8 <__sprint_r>
    1ab8:	c8050863          	beq	x10,x0,f48 <_vfprintf_r+0x330>
    1abc:	01412f03          	lw	x30,20(x2)
    1ac0:	ca0f0e63          	beq	x30,x0,f7c <_vfprintf_r+0x364>
    1ac4:	03012503          	lw	x10,48(x2)
    1ac8:	000f0593          	addi	x11,x30,0
    1acc:	00d020ef          	jal	x1,42d8 <_free_r>
    1ad0:	cacff06f          	jal	x0,f7c <_vfprintf_r+0x364>
    1ad4:	000b8d93          	addi	x27,x23,0
    1ad8:	9a5ff06f          	jal	x0,147c <_vfprintf_r+0x864>
    1adc:	00014837          	lui	x16,0x14
    1ae0:	01000513          	addi	x10,x0,16
    1ae4:	0ec12583          	lw	x11,236(x2)
    1ae8:	0e812603          	lw	x12,232(x2)
    1aec:	78880a93          	addi	x21,x16,1928 # 14788 <blanks.1>
    1af0:	0ae55063          	bge	x10,x14,1b90 <_vfprintf_r+0xf78>
    1af4:	04912a23          	sw	x9,84(x2)
    1af8:	00040793          	addi	x15,x8,0
    1afc:	000a8493          	addi	x9,x21,0
    1b00:	01000e93          	addi	x29,x0,16
    1b04:	00090a93          	addi	x21,x18,0
    1b08:	00700393          	addi	x7,x0,7
    1b0c:	05f12823          	sw	x31,80(x2)
    1b10:	00070413          	addi	x8,x14,0
    1b14:	00088913          	addi	x18,x17,0
    1b18:	00c0006f          	jal	x0,1b24 <_vfprintf_r+0xf0c>
    1b1c:	ff040413          	addi	x8,x8,-16
    1b20:	048eda63          	bge	x29,x8,1b74 <_vfprintf_r+0xf5c>
    1b24:	01058593          	addi	x11,x11,16
    1b28:	00160613          	addi	x12,x12,1
    1b2c:	0097a023          	sw	x9,0(x15)
    1b30:	01d7a223          	sw	x29,4(x15)
    1b34:	0eb12623          	sw	x11,236(x2)
    1b38:	0ec12423          	sw	x12,232(x2)
    1b3c:	00878793          	addi	x15,x15,8
    1b40:	fcc3dee3          	bge	x7,x12,1b1c <_vfprintf_r+0xf04>
    1b44:	00812583          	lw	x11,8(x2)
    1b48:	0e410613          	addi	x12,x2,228
    1b4c:	00098513          	addi	x10,x19,0
    1b50:	3580b0ef          	jal	x1,cea8 <__sprint_r>
    1b54:	f60514e3          	bne	x10,x0,1abc <_vfprintf_r+0xea4>
    1b58:	01000e93          	addi	x29,x0,16
    1b5c:	ff040413          	addi	x8,x8,-16
    1b60:	0ec12583          	lw	x11,236(x2)
    1b64:	0e812603          	lw	x12,232(x2)
    1b68:	000b0793          	addi	x15,x22,0
    1b6c:	00700393          	addi	x7,x0,7
    1b70:	fa8ecae3          	blt	x29,x8,1b24 <_vfprintf_r+0xf0c>
    1b74:	00090893          	addi	x17,x18,0
    1b78:	05012f83          	lw	x31,80(x2)
    1b7c:	000a8913          	addi	x18,x21,0
    1b80:	00048a93          	addi	x21,x9,0
    1b84:	05412483          	lw	x9,84(x2)
    1b88:	00040713          	addi	x14,x8,0
    1b8c:	00078413          	addi	x8,x15,0
    1b90:	00b705b3          	add	x11,x14,x11
    1b94:	00160613          	addi	x12,x12,1
    1b98:	00e42223          	sw	x14,4(x8)
    1b9c:	01542023          	sw	x21,0(x8)
    1ba0:	0eb12623          	sw	x11,236(x2)
    1ba4:	0ec12423          	sw	x12,232(x2)
    1ba8:	00700713          	addi	x14,x0,7
    1bac:	00840413          	addi	x8,x8,8
    1bb0:	aac75a63          	bge	x14,x12,e64 <_vfprintf_r+0x24c>
    1bb4:	00812583          	lw	x11,8(x2)
    1bb8:	0e410613          	addi	x12,x2,228
    1bbc:	00098513          	addi	x10,x19,0
    1bc0:	05112a23          	sw	x17,84(x2)
    1bc4:	05f12823          	sw	x31,80(x2)
    1bc8:	2e00b0ef          	jal	x1,cea8 <__sprint_r>
    1bcc:	ee0518e3          	bne	x10,x0,1abc <_vfprintf_r+0xea4>
    1bd0:	05412883          	lw	x17,84(x2)
    1bd4:	05012f83          	lw	x31,80(x2)
    1bd8:	000b0413          	addi	x8,x22,0
    1bdc:	a88ff06f          	jal	x0,e64 <_vfprintf_r+0x24c>
    1be0:	00812583          	lw	x11,8(x2)
    1be4:	0e410613          	addi	x12,x2,228
    1be8:	00098513          	addi	x10,x19,0
    1bec:	05112823          	sw	x17,80(x2)
    1bf0:	2b80b0ef          	jal	x1,cea8 <__sprint_r>
    1bf4:	ec0514e3          	bne	x10,x0,1abc <_vfprintf_r+0xea4>
    1bf8:	05012883          	lw	x17,80(x2)
    1bfc:	000b0413          	addi	x8,x22,0
    1c00:	ad8ff06f          	jal	x0,ed8 <_vfprintf_r+0x2c0>
    1c04:	00014837          	lui	x16,0x14
    1c08:	01000613          	addi	x12,x0,16
    1c0c:	0e812783          	lw	x15,232(x2)
    1c10:	78880a93          	addi	x21,x16,1928 # 14788 <blanks.1>
    1c14:	07265263          	bge	x12,x18,1c78 <_vfprintf_r+0x1060>
    1c18:	00812b83          	lw	x23,8(x2)
    1c1c:	01000d13          	addi	x26,x0,16
    1c20:	00700d93          	addi	x27,x0,7
    1c24:	00c0006f          	jal	x0,1c30 <_vfprintf_r+0x1018>
    1c28:	ff090913          	addi	x18,x18,-16
    1c2c:	052d5663          	bge	x26,x18,1c78 <_vfprintf_r+0x1060>
    1c30:	01070713          	addi	x14,x14,16
    1c34:	00178793          	addi	x15,x15,1
    1c38:	01542023          	sw	x21,0(x8)
    1c3c:	01a42223          	sw	x26,4(x8)
    1c40:	0ee12623          	sw	x14,236(x2)
    1c44:	0ef12423          	sw	x15,232(x2)
    1c48:	00840413          	addi	x8,x8,8
    1c4c:	fcfddee3          	bge	x27,x15,1c28 <_vfprintf_r+0x1010>
    1c50:	0e410613          	addi	x12,x2,228
    1c54:	000b8593          	addi	x11,x23,0
    1c58:	00098513          	addi	x10,x19,0
    1c5c:	24c0b0ef          	jal	x1,cea8 <__sprint_r>
    1c60:	e4051ee3          	bne	x10,x0,1abc <_vfprintf_r+0xea4>
    1c64:	ff090913          	addi	x18,x18,-16
    1c68:	0ec12703          	lw	x14,236(x2)
    1c6c:	0e812783          	lw	x15,232(x2)
    1c70:	000b0413          	addi	x8,x22,0
    1c74:	fb2d4ee3          	blt	x26,x18,1c30 <_vfprintf_r+0x1018>
    1c78:	01270733          	add	x14,x14,x18
    1c7c:	00178793          	addi	x15,x15,1
    1c80:	01542023          	sw	x21,0(x8)
    1c84:	01242223          	sw	x18,4(x8)
    1c88:	0ee12623          	sw	x14,236(x2)
    1c8c:	0ef12423          	sw	x15,232(x2)
    1c90:	00700613          	addi	x12,x0,7
    1c94:	a8f65c63          	bge	x12,x15,f2c <_vfprintf_r+0x314>
    1c98:	00812583          	lw	x11,8(x2)
    1c9c:	0e410613          	addi	x12,x2,228
    1ca0:	00098513          	addi	x10,x19,0
    1ca4:	2040b0ef          	jal	x1,cea8 <__sprint_r>
    1ca8:	e0051ae3          	bne	x10,x0,1abc <_vfprintf_r+0xea4>
    1cac:	0ec12703          	lw	x14,236(x2)
    1cb0:	a7cff06f          	jal	x0,f2c <_vfprintf_r+0x314>
    1cb4:	0cc12503          	lw	x10,204(x2)
    1cb8:	64a05c63          	bge	x0,x10,2310 <_vfprintf_r+0x16f8>
    1cbc:	02412783          	lw	x15,36(x2)
    1cc0:	00fc0733          	add	x14,x24,x15
    1cc4:	04e12823          	sw	x14,80(x2)
    1cc8:	02012703          	lw	x14,32(x2)
    1ccc:	00070913          	addi	x18,x14,0
    1cd0:	34e7cc63          	blt	x15,x14,2028 <_vfprintf_r+0x1410>
    1cd4:	0ec12703          	lw	x14,236(x2)
    1cd8:	03205663          	bge	x0,x18,1d04 <_vfprintf_r+0x10ec>
    1cdc:	0e812603          	lw	x12,232(x2)
    1ce0:	01270733          	add	x14,x14,x18
    1ce4:	01842023          	sw	x24,0(x8)
    1ce8:	00160613          	addi	x12,x12,1
    1cec:	01242223          	sw	x18,4(x8)
    1cf0:	0ee12623          	sw	x14,236(x2)
    1cf4:	0ec12423          	sw	x12,232(x2)
    1cf8:	00700593          	addi	x11,x0,7
    1cfc:	00840413          	addi	x8,x8,8
    1d00:	58c5c4e3          	blt	x11,x12,2a88 <_vfprintf_r+0x1e70>
    1d04:	fff94613          	xori	x12,x18,-1
    1d08:	02012783          	lw	x15,32(x2)
    1d0c:	41f65613          	srai	x12,x12,0x1f
    1d10:	00c97833          	and	x16,x18,x12
    1d14:	41078933          	sub	x18,x15,x16
    1d18:	3f204a63          	blt	x0,x18,210c <_vfprintf_r+0x14f4>
    1d1c:	02012783          	lw	x15,32(x2)
    1d20:	400bf613          	andi	x12,x23,1024
    1d24:	00fc0c33          	add	x24,x24,x15
    1d28:	06061ce3          	bne	x12,x0,25a0 <_vfprintf_r+0x1988>
    1d2c:	0cc12603          	lw	x12,204(x2)
    1d30:	02412783          	lw	x15,36(x2)
    1d34:	00f64663          	blt	x12,x15,1d40 <_vfprintf_r+0x1128>
    1d38:	001bf593          	andi	x11,x23,1
    1d3c:	56058ce3          	beq	x11,x0,2ab4 <_vfprintf_r+0x1e9c>
    1d40:	03412783          	lw	x15,52(x2)
    1d44:	0e812583          	lw	x11,232(x2)
    1d48:	03812683          	lw	x13,56(x2)
    1d4c:	00e78733          	add	x14,x15,x14
    1d50:	00158593          	addi	x11,x11,1
    1d54:	00d42023          	sw	x13,0(x8)
    1d58:	00f42223          	sw	x15,4(x8)
    1d5c:	0ee12623          	sw	x14,236(x2)
    1d60:	0eb12423          	sw	x11,232(x2)
    1d64:	00700513          	addi	x10,x0,7
    1d68:	00840413          	addi	x8,x8,8
    1d6c:	00b55463          	bge	x10,x11,1d74 <_vfprintf_r+0x115c>
    1d70:	4040106f          	jal	x0,3174 <_vfprintf_r+0x255c>
    1d74:	02412783          	lw	x15,36(x2)
    1d78:	40c78633          	sub	x12,x15,x12
    1d7c:	05012783          	lw	x15,80(x2)
    1d80:	41878933          	sub	x18,x15,x24
    1d84:	01265463          	bge	x12,x18,1d8c <_vfprintf_r+0x1174>
    1d88:	00060913          	addi	x18,x12,0
    1d8c:	03205863          	bge	x0,x18,1dbc <_vfprintf_r+0x11a4>
    1d90:	0e812583          	lw	x11,232(x2)
    1d94:	01270733          	add	x14,x14,x18
    1d98:	01842023          	sw	x24,0(x8)
    1d9c:	00158593          	addi	x11,x11,1
    1da0:	01242223          	sw	x18,4(x8)
    1da4:	0ee12623          	sw	x14,236(x2)
    1da8:	0eb12423          	sw	x11,232(x2)
    1dac:	00700513          	addi	x10,x0,7
    1db0:	00840413          	addi	x8,x8,8
    1db4:	00b55463          	bge	x10,x11,1dbc <_vfprintf_r+0x11a4>
    1db8:	41c0106f          	jal	x0,31d4 <_vfprintf_r+0x25bc>
    1dbc:	fff94593          	xori	x11,x18,-1
    1dc0:	41f5d593          	srai	x11,x11,0x1f
    1dc4:	00b97d33          	and	x26,x18,x11
    1dc8:	41a60933          	sub	x18,x12,x26
    1dcc:	95205863          	bge	x0,x18,f1c <_vfprintf_r+0x304>
    1dd0:	00014837          	lui	x16,0x14
    1dd4:	01000593          	addi	x11,x0,16
    1dd8:	0e812603          	lw	x12,232(x2)
    1ddc:	77880a93          	addi	x21,x16,1912 # 14778 <zeroes.0>
    1de0:	5d25da63          	bge	x11,x18,23b4 <_vfprintf_r+0x179c>
    1de4:	00812c03          	lw	x24,8(x2)
    1de8:	01000d13          	addi	x26,x0,16
    1dec:	00700d93          	addi	x27,x0,7
    1df0:	00c0006f          	jal	x0,1dfc <_vfprintf_r+0x11e4>
    1df4:	ff090913          	addi	x18,x18,-16
    1df8:	5b2d5e63          	bge	x26,x18,23b4 <_vfprintf_r+0x179c>
    1dfc:	01070713          	addi	x14,x14,16
    1e00:	00160613          	addi	x12,x12,1
    1e04:	01542023          	sw	x21,0(x8)
    1e08:	01a42223          	sw	x26,4(x8)
    1e0c:	0ee12623          	sw	x14,236(x2)
    1e10:	0ec12423          	sw	x12,232(x2)
    1e14:	00840413          	addi	x8,x8,8
    1e18:	fccddee3          	bge	x27,x12,1df4 <_vfprintf_r+0x11dc>
    1e1c:	0e410613          	addi	x12,x2,228
    1e20:	000c0593          	addi	x11,x24,0
    1e24:	00098513          	addi	x10,x19,0
    1e28:	0800b0ef          	jal	x1,cea8 <__sprint_r>
    1e2c:	c80518e3          	bne	x10,x0,1abc <_vfprintf_r+0xea4>
    1e30:	0ec12703          	lw	x14,236(x2)
    1e34:	0e812603          	lw	x12,232(x2)
    1e38:	000b0413          	addi	x8,x22,0
    1e3c:	fb9ff06f          	jal	x0,1df4 <_vfprintf_r+0x11dc>
    1e40:	001bf713          	andi	x14,x23,1
    1e44:	c8071c63          	bne	x14,x0,12dc <_vfprintf_r+0x6c4>
    1e48:	0ec12703          	lw	x14,236(x2)
    1e4c:	0e812603          	lw	x12,232(x2)
    1e50:	01842023          	sw	x24,0(x8)
    1e54:	00170d93          	addi	x27,x14,1
    1e58:	00160913          	addi	x18,x12,1
    1e5c:	00b42223          	sw	x11,4(x8)
    1e60:	0fb12623          	sw	x27,236(x2)
    1e64:	0f212423          	sw	x18,232(x2)
    1e68:	00700713          	addi	x14,x0,7
    1e6c:	d3275c63          	bge	x14,x18,13a4 <_vfprintf_r+0x78c>
    1e70:	00812583          	lw	x11,8(x2)
    1e74:	0e410613          	addi	x12,x2,228
    1e78:	00098513          	addi	x10,x19,0
    1e7c:	02c0b0ef          	jal	x1,cea8 <__sprint_r>
    1e80:	c2051ee3          	bne	x10,x0,1abc <_vfprintf_r+0xea4>
    1e84:	0ec12d83          	lw	x27,236(x2)
    1e88:	0e812903          	lw	x18,232(x2)
    1e8c:	000b0d13          	addi	x26,x22,0
    1e90:	d14ff06f          	jal	x0,13a4 <_vfprintf_r+0x78c>
    1e94:	02412783          	lw	x15,36(x2)
    1e98:	00100713          	addi	x14,x0,1
    1e9c:	d0f75463          	bge	x14,x15,13a4 <_vfprintf_r+0x78c>
    1ea0:	00014837          	lui	x16,0x14
    1ea4:	01100713          	addi	x14,x0,17
    1ea8:	77880a93          	addi	x21,x16,1912 # 14778 <zeroes.0>
    1eac:	5cf75c63          	bge	x14,x15,2484 <_vfprintf_r+0x186c>
    1eb0:	000a8793          	addi	x15,x21,0
    1eb4:	01000713          	addi	x14,x0,16
    1eb8:	000a0a93          	addi	x21,x20,0
    1ebc:	00700c13          	addi	x24,x0,7
    1ec0:	00048a13          	addi	x20,x9,0
    1ec4:	00078493          	addi	x9,x15,0
    1ec8:	00c0006f          	jal	x0,1ed4 <_vfprintf_r+0x12bc>
    1ecc:	ff040413          	addi	x8,x8,-16
    1ed0:	5a875263          	bge	x14,x8,2474 <_vfprintf_r+0x185c>
    1ed4:	010d8d93          	addi	x27,x27,16
    1ed8:	00190913          	addi	x18,x18,1
    1edc:	009d2023          	sw	x9,0(x26)
    1ee0:	00ed2223          	sw	x14,4(x26)
    1ee4:	0fb12623          	sw	x27,236(x2)
    1ee8:	0f212423          	sw	x18,232(x2)
    1eec:	008d0d13          	addi	x26,x26,8
    1ef0:	fd2c5ee3          	bge	x24,x18,1ecc <_vfprintf_r+0x12b4>
    1ef4:	00812583          	lw	x11,8(x2)
    1ef8:	0e410613          	addi	x12,x2,228
    1efc:	00098513          	addi	x10,x19,0
    1f00:	7a90a0ef          	jal	x1,cea8 <__sprint_r>
    1f04:	ba051ce3          	bne	x10,x0,1abc <_vfprintf_r+0xea4>
    1f08:	0ec12d83          	lw	x27,236(x2)
    1f0c:	0e812903          	lw	x18,232(x2)
    1f10:	000b0d13          	addi	x26,x22,0
    1f14:	01000713          	addi	x14,x0,16
    1f18:	fb5ff06f          	jal	x0,1ecc <_vfprintf_r+0x12b4>
    1f1c:	01812703          	lw	x14,24(x2)
    1f20:	010df793          	andi	x15,x27,16
    1f24:	00072c83          	lw	x25,0(x14)
    1f28:	00470713          	addi	x14,x14,4
    1f2c:	00e12c23          	sw	x14,24(x2)
    1f30:	04079a63          	bne	x15,x0,1f84 <_vfprintf_r+0x136c>
    1f34:	040df793          	andi	x15,x27,64
    1f38:	04078063          	beq	x15,x0,1f78 <_vfprintf_r+0x1360>
    1f3c:	010c9c93          	slli	x25,x25,0x10
    1f40:	010cdc93          	srli	x25,x25,0x10
    1f44:	00000d13          	addi	x26,x0,0
    1f48:	00100693          	addi	x13,x0,1
    1f4c:	9e0ff06f          	jal	x0,112c <_vfprintf_r+0x514>
    1f50:	00000d13          	addi	x26,x0,0
    1f54:	1b010c13          	addi	x24,x2,432
    1f58:	978ff06f          	jal	x0,10d0 <_vfprintf_r+0x4b8>
    1f5c:	001bf613          	andi	x12,x23,1
    1f60:	00061463          	bne	x12,x0,1f68 <_vfprintf_r+0x1350>
    1f64:	fb9fe06f          	jal	x0,f1c <_vfprintf_r+0x304>
    1f68:	86dff06f          	jal	x0,17d4 <_vfprintf_r+0xbbc>
    1f6c:	0004c883          	lbu	x17,0(x9)
    1f70:	00f12c23          	sw	x15,24(x2)
    1f74:	e55fe06f          	jal	x0,dc8 <_vfprintf_r+0x1b0>
    1f78:	200df793          	andi	x15,x27,512
    1f7c:	00078463          	beq	x15,x0,1f84 <_vfprintf_r+0x136c>
    1f80:	0ffcfc93          	andi	x25,x25,255
    1f84:	00000d13          	addi	x26,x0,0
    1f88:	00100693          	addi	x13,x0,1
    1f8c:	9a0ff06f          	jal	x0,112c <_vfprintf_r+0x514>
    1f90:	200bf713          	andi	x14,x23,512
    1f94:	360716e3          	bne	x14,x0,2b00 <_vfprintf_r+0x1ee8>
    1f98:	00000d13          	addi	x26,x0,0
    1f9c:	988ff06f          	jal	x0,1124 <_vfprintf_r+0x50c>
    1fa0:	200bf713          	andi	x14,x23,512
    1fa4:	340714e3          	bne	x14,x0,2aec <_vfprintf_r+0x1ed4>
    1fa8:	41fcdd13          	srai	x26,x25,0x1f
    1fac:	000d0713          	addi	x14,x26,0
    1fb0:	8f4ff06f          	jal	x0,10a4 <_vfprintf_r+0x48c>
    1fb4:	01812783          	lw	x15,24(x2)
    1fb8:	0007a703          	lw	x14,0(x15)
    1fbc:	00478793          	addi	x15,x15,4
    1fc0:	00f12c23          	sw	x15,24(x2)
    1fc4:	00072583          	lw	x11,0(x14)
    1fc8:	00472603          	lw	x12,4(x14)
    1fcc:	00872683          	lw	x13,8(x14)
    1fd0:	00c72703          	lw	x14,12(x14)
    1fd4:	a08ff06f          	jal	x0,11dc <_vfprintf_r+0x5c4>
    1fd8:	010bf713          	andi	x14,x23,16
    1fdc:	48071263          	bne	x14,x0,2460 <_vfprintf_r+0x1848>
    1fe0:	040bf713          	andi	x14,x23,64
    1fe4:	2e0714e3          	bne	x14,x0,2acc <_vfprintf_r+0x1eb4>
    1fe8:	200bf793          	andi	x15,x23,512
    1fec:	46078a63          	beq	x15,x0,2460 <_vfprintf_r+0x1848>
    1ff0:	01812783          	lw	x15,24(x2)
    1ff4:	01012703          	lw	x14,16(x2)
    1ff8:	0007a783          	lw	x15,0(x15)
    1ffc:	00e78023          	sb	x14,0(x15)
    2000:	f34ff06f          	jal	x0,1734 <_vfprintf_r+0xb1c>
    2004:	04012783          	lw	x15,64(x2)
    2008:	0004c883          	lbu	x17,0(x9)
    200c:	00079463          	bne	x15,x0,2014 <_vfprintf_r+0x13fc>
    2010:	db9fe06f          	jal	x0,dc8 <_vfprintf_r+0x1b0>
    2014:	0007c783          	lbu	x15,0(x15)
    2018:	00079463          	bne	x15,x0,2020 <_vfprintf_r+0x1408>
    201c:	dadfe06f          	jal	x0,dc8 <_vfprintf_r+0x1b0>
    2020:	400beb93          	ori	x23,x23,1024
    2024:	da5fe06f          	jal	x0,dc8 <_vfprintf_r+0x1b0>
    2028:	00078913          	addi	x18,x15,0
    202c:	0ec12703          	lw	x14,236(x2)
    2030:	cb2046e3          	blt	x0,x18,1cdc <_vfprintf_r+0x10c4>
    2034:	cd1ff06f          	jal	x0,1d04 <_vfprintf_r+0x10ec>
    2038:	000b8d93          	addi	x27,x23,0
    203c:	e48ff06f          	jal	x0,1684 <_vfprintf_r+0xa6c>
    2040:	00014737          	lui	x14,0x14
    2044:	55470793          	addi	x15,x14,1364 # 14554 <no_exception_handler_msg+0x102>
    2048:	02f12e23          	sw	x15,60(x2)
    204c:	020bf713          	andi	x14,x23,32
    2050:	12070863          	beq	x14,x0,2180 <_vfprintf_r+0x1568>
    2054:	01812783          	lw	x15,24(x2)
    2058:	00778a93          	addi	x21,x15,7
    205c:	ff8afa93          	andi	x21,x21,-8
    2060:	000aac83          	lw	x25,0(x21)
    2064:	004aad03          	lw	x26,4(x21)
    2068:	008a8793          	addi	x15,x21,8
    206c:	00f12c23          	sw	x15,24(x2)
    2070:	001bf713          	andi	x14,x23,1
    2074:	00070e63          	beq	x14,x0,2090 <_vfprintf_r+0x1478>
    2078:	01ace733          	or	x14,x25,x26
    207c:	00070a63          	beq	x14,x0,2090 <_vfprintf_r+0x1478>
    2080:	03000713          	addi	x14,x0,48
    2084:	0ce10423          	sb	x14,200(x2)
    2088:	0d1104a3          	sb	x17,201(x2)
    208c:	002beb93          	ori	x23,x23,2
    2090:	bffbfd93          	andi	x27,x23,-1025
    2094:	00200693          	addi	x13,x0,2
    2098:	894ff06f          	jal	x0,112c <_vfprintf_r+0x514>
    209c:	0014c883          	lbu	x17,1(x9)
    20a0:	200beb93          	ori	x23,x23,512
    20a4:	00148493          	addi	x9,x9,1
    20a8:	d21fe06f          	jal	x0,dc8 <_vfprintf_r+0x1b0>
    20ac:	00014737          	lui	x14,0x14
    20b0:	54070793          	addi	x15,x14,1344 # 14540 <no_exception_handler_msg+0xee>
    20b4:	02f12e23          	sw	x15,60(x2)
    20b8:	f95ff06f          	jal	x0,204c <_vfprintf_r+0x1434>
    20bc:	00812583          	lw	x11,8(x2)
    20c0:	0e410613          	addi	x12,x2,228
    20c4:	00098513          	addi	x10,x19,0
    20c8:	5e10a0ef          	jal	x1,cea8 <__sprint_r>
    20cc:	9e0518e3          	bne	x10,x0,1abc <_vfprintf_r+0xea4>
    20d0:	0ec12703          	lw	x14,236(x2)
    20d4:	000b0413          	addi	x8,x22,0
    20d8:	f2cff06f          	jal	x0,1804 <_vfprintf_r+0xbec>
    20dc:	0014c883          	lbu	x17,1(x9)
    20e0:	020beb93          	ori	x23,x23,32
    20e4:	00148493          	addi	x9,x9,1
    20e8:	ce1fe06f          	jal	x0,dc8 <_vfprintf_r+0x1b0>
    20ec:	00600713          	addi	x14,x0,6
    20f0:	00090d13          	addi	x26,x18,0
    20f4:	1b276ce3          	bltu	x14,x18,2aac <_vfprintf_r+0x1e94>
    20f8:	000142b7          	lui	x5,0x14
    20fc:	000d0c93          	addi	x25,x26,0
    2100:	01512c23          	sw	x21,24(x2)
    2104:	56828c13          	addi	x24,x5,1384 # 14568 <no_exception_handler_msg+0x116>
    2108:	d2dfe06f          	jal	x0,e34 <_vfprintf_r+0x21c>
    210c:	00014837          	lui	x16,0x14
    2110:	01000593          	addi	x11,x0,16
    2114:	0e812603          	lw	x12,232(x2)
    2118:	77880a93          	addi	x21,x16,1912 # 14778 <zeroes.0>
    211c:	4525d063          	bge	x11,x18,255c <_vfprintf_r+0x1944>
    2120:	00812d83          	lw	x27,8(x2)
    2124:	01000e13          	addi	x28,x0,16
    2128:	00700d13          	addi	x26,x0,7
    212c:	00c0006f          	jal	x0,2138 <_vfprintf_r+0x1520>
    2130:	ff090913          	addi	x18,x18,-16
    2134:	432e5463          	bge	x28,x18,255c <_vfprintf_r+0x1944>
    2138:	01070713          	addi	x14,x14,16
    213c:	00160613          	addi	x12,x12,1
    2140:	01542023          	sw	x21,0(x8)
    2144:	01c42223          	sw	x28,4(x8)
    2148:	0ee12623          	sw	x14,236(x2)
    214c:	0ec12423          	sw	x12,232(x2)
    2150:	00840413          	addi	x8,x8,8
    2154:	fccd5ee3          	bge	x26,x12,2130 <_vfprintf_r+0x1518>
    2158:	0e410613          	addi	x12,x2,228
    215c:	000d8593          	addi	x11,x27,0
    2160:	00098513          	addi	x10,x19,0
    2164:	5450a0ef          	jal	x1,cea8 <__sprint_r>
    2168:	94051ae3          	bne	x10,x0,1abc <_vfprintf_r+0xea4>
    216c:	0ec12703          	lw	x14,236(x2)
    2170:	0e812603          	lw	x12,232(x2)
    2174:	000b0413          	addi	x8,x22,0
    2178:	01000e13          	addi	x28,x0,16
    217c:	fb5ff06f          	jal	x0,2130 <_vfprintf_r+0x1518>
    2180:	01812783          	lw	x15,24(x2)
    2184:	010bf713          	andi	x14,x23,16
    2188:	0007ac83          	lw	x25,0(x15)
    218c:	00478793          	addi	x15,x15,4
    2190:	00f12c23          	sw	x15,24(x2)
    2194:	06071663          	bne	x14,x0,2200 <_vfprintf_r+0x15e8>
    2198:	040bf713          	andi	x14,x23,64
    219c:	04070e63          	beq	x14,x0,21f8 <_vfprintf_r+0x15e0>
    21a0:	010c9c93          	slli	x25,x25,0x10
    21a4:	010cdc93          	srli	x25,x25,0x10
    21a8:	00000d13          	addi	x26,x0,0
    21ac:	ec5ff06f          	jal	x0,2070 <_vfprintf_r+0x1458>
    21b0:	00812583          	lw	x11,8(x2)
    21b4:	0e410613          	addi	x12,x2,228
    21b8:	00098513          	addi	x10,x19,0
    21bc:	4ed0a0ef          	jal	x1,cea8 <__sprint_r>
    21c0:	8e051ee3          	bne	x10,x0,1abc <_vfprintf_r+0xea4>
    21c4:	0ec12703          	lw	x14,236(x2)
    21c8:	0e812603          	lw	x12,232(x2)
    21cc:	000b0d13          	addi	x26,x22,0
    21d0:	938ff06f          	jal	x0,1308 <_vfprintf_r+0x6f0>
    21d4:	00812583          	lw	x11,8(x2)
    21d8:	0e410613          	addi	x12,x2,228
    21dc:	00098513          	addi	x10,x19,0
    21e0:	4c90a0ef          	jal	x1,cea8 <__sprint_r>
    21e4:	8c051ce3          	bne	x10,x0,1abc <_vfprintf_r+0xea4>
    21e8:	0ec12d83          	lw	x27,236(x2)
    21ec:	0e812903          	lw	x18,232(x2)
    21f0:	000b0d13          	addi	x26,x22,0
    21f4:	940ff06f          	jal	x0,1334 <_vfprintf_r+0x71c>
    21f8:	200bf713          	andi	x14,x23,512
    21fc:	0e0712e3          	bne	x14,x0,2ae0 <_vfprintf_r+0x1ec8>
    2200:	00000d13          	addi	x26,x0,0
    2204:	e6dff06f          	jal	x0,2070 <_vfprintf_r+0x1458>
    2208:	ccccde37          	lui	x28,0xccccd
    220c:	04012703          	lw	x14,64(x2)
    2210:	400dfe93          	andi	x29,x27,1024
    2214:	00000593          	addi	x11,x0,0
    2218:	1b010613          	addi	x12,x2,432
    221c:	00500813          	addi	x16,x0,5
    2220:	ccde0693          	addi	x13,x28,-819 # cccccccd <__heap_end+0xcc8ccccd>
    2224:	ccce0b93          	addi	x23,x28,-820
    2228:	0ff00a93          	addi	x21,x0,255
    222c:	0540006f          	jal	x0,2280 <_vfprintf_r+0x1668>
    2230:	019c37b3          	sltu	x15,x24,x25
    2234:	00fc07b3          	add	x15,x24,x15
    2238:	0307f7b3          	remu	x15,x15,x16
    223c:	40fc87b3          	sub	x15,x25,x15
    2240:	00fcb633          	sltu	x12,x25,x15
    2244:	40cd0633          	sub	x12,x26,x12
    2248:	03778e33          	mul	x28,x15,x23
    224c:	02d60633          	mul	x12,x12,x13
    2250:	02d7b533          	mulhu	x10,x15,x13
    2254:	01c60633          	add	x12,x12,x28
    2258:	02d787b3          	mul	x15,x15,x13
    225c:	00a60633          	add	x12,x12,x10
    2260:	01f61513          	slli	x10,x12,0x1f
    2264:	00165613          	srli	x12,x12,0x1
    2268:	0017d793          	srli	x15,x15,0x1
    226c:	00f567b3          	or	x15,x10,x15
    2270:	6e0d02e3          	beq	x26,x0,3154 <_vfprintf_r+0x253c>
    2274:	00060d13          	addi	x26,x12,0
    2278:	00078c93          	addi	x25,x15,0
    227c:	00030613          	addi	x12,x6,0
    2280:	01ac8c33          	add	x24,x25,x26
    2284:	019c37b3          	sltu	x15,x24,x25
    2288:	00fc07b3          	add	x15,x24,x15
    228c:	0307f7b3          	remu	x15,x15,x16
    2290:	fff60313          	addi	x6,x12,-1
    2294:	00158593          	addi	x11,x11,1
    2298:	40fc87b3          	sub	x15,x25,x15
    229c:	00fcb533          	sltu	x10,x25,x15
    22a0:	40ad0533          	sub	x10,x26,x10
    22a4:	02d7be33          	mulhu	x28,x15,x13
    22a8:	02d50533          	mul	x10,x10,x13
    22ac:	02d787b3          	mul	x15,x15,x13
    22b0:	01c50533          	add	x10,x10,x28
    22b4:	01f51513          	slli	x10,x10,0x1f
    22b8:	0017d793          	srli	x15,x15,0x1
    22bc:	00f567b3          	or	x15,x10,x15
    22c0:	00279513          	slli	x10,x15,0x2
    22c4:	00f507b3          	add	x15,x10,x15
    22c8:	00179793          	slli	x15,x15,0x1
    22cc:	40fc87b3          	sub	x15,x25,x15
    22d0:	03078793          	addi	x15,x15,48
    22d4:	fef60fa3          	sb	x15,-1(x12)
    22d8:	f40e8ce3          	beq	x29,x0,2230 <_vfprintf_r+0x1618>
    22dc:	00074783          	lbu	x15,0(x14)
    22e0:	f4f598e3          	bne	x11,x15,2230 <_vfprintf_r+0x1618>
    22e4:	f55586e3          	beq	x11,x21,2230 <_vfprintf_r+0x1618>
    22e8:	4a0d1263          	bne	x26,x0,278c <_vfprintf_r+0x1b74>
    22ec:	00900793          	addi	x15,x0,9
    22f0:	4997ee63          	bltu	x15,x25,278c <_vfprintf_r+0x1b74>
    22f4:	00030c13          	addi	x24,x6,0
    22f8:	1b010793          	addi	x15,x2,432
    22fc:	02b12223          	sw	x11,36(x2)
    2300:	04e12023          	sw	x14,64(x2)
    2304:	41878d33          	sub	x26,x15,x24
    2308:	000d8b93          	addi	x23,x27,0
    230c:	dc5fe06f          	jal	x0,10d0 <_vfprintf_r+0x4b8>
    2310:	0ec12703          	lw	x14,236(x2)
    2314:	0e812603          	lw	x12,232(x2)
    2318:	000145b7          	lui	x11,0x14
    231c:	57058593          	addi	x11,x11,1392 # 14570 <no_exception_handler_msg+0x11e>
    2320:	00b42023          	sw	x11,0(x8)
    2324:	00170713          	addi	x14,x14,1
    2328:	00100593          	addi	x11,x0,1
    232c:	00160613          	addi	x12,x12,1
    2330:	00b42223          	sw	x11,4(x8)
    2334:	0ee12623          	sw	x14,236(x2)
    2338:	0ec12423          	sw	x12,232(x2)
    233c:	00700593          	addi	x11,x0,7
    2340:	00840413          	addi	x8,x8,8
    2344:	4ec5c663          	blt	x11,x12,2830 <_vfprintf_r+0x1c18>
    2348:	14051663          	bne	x10,x0,2494 <_vfprintf_r+0x187c>
    234c:	02412783          	lw	x15,36(x2)
    2350:	001bf613          	andi	x12,x23,1
    2354:	00f66633          	or	x12,x12,x15
    2358:	00061463          	bne	x12,x0,2360 <_vfprintf_r+0x1748>
    235c:	bc1fe06f          	jal	x0,f1c <_vfprintf_r+0x304>
    2360:	03412783          	lw	x15,52(x2)
    2364:	0e812603          	lw	x12,232(x2)
    2368:	03812683          	lw	x13,56(x2)
    236c:	00e78733          	add	x14,x15,x14
    2370:	00160613          	addi	x12,x12,1
    2374:	00d42023          	sw	x13,0(x8)
    2378:	00f42223          	sw	x15,4(x8)
    237c:	0ee12623          	sw	x14,236(x2)
    2380:	0ec12423          	sw	x12,232(x2)
    2384:	00700593          	addi	x11,x0,7
    2388:	7ac5c263          	blt	x11,x12,2b2c <_vfprintf_r+0x1f14>
    238c:	00840413          	addi	x8,x8,8
    2390:	1380006f          	jal	x0,24c8 <_vfprintf_r+0x18b0>
    2394:	00812583          	lw	x11,8(x2)
    2398:	0e410613          	addi	x12,x2,228
    239c:	00098513          	addi	x10,x19,0
    23a0:	3090a0ef          	jal	x1,cea8 <__sprint_r>
    23a4:	f0051c63          	bne	x10,x0,1abc <_vfprintf_r+0xea4>
    23a8:	0ec12703          	lw	x14,236(x2)
    23ac:	000b0413          	addi	x8,x22,0
    23b0:	c18ff06f          	jal	x0,17c8 <_vfprintf_r+0xbb0>
    23b4:	01542023          	sw	x21,0(x8)
    23b8:	01242223          	sw	x18,4(x8)
    23bc:	01270733          	add	x14,x14,x18
    23c0:	00160613          	addi	x12,x12,1
    23c4:	0ee12623          	sw	x14,236(x2)
    23c8:	0ec12423          	sw	x12,232(x2)
    23cc:	00700593          	addi	x11,x0,7
    23d0:	00c5c463          	blt	x11,x12,23d8 <_vfprintf_r+0x17c0>
    23d4:	b45fe06f          	jal	x0,f18 <_vfprintf_r+0x300>
    23d8:	ff9fe06f          	jal	x0,13d0 <_vfprintf_r+0x7b8>
    23dc:	0f012703          	lw	x14,240(x2)
    23e0:	0a010593          	addi	x11,x2,160
    23e4:	0b010513          	addi	x10,x2,176
    23e8:	0ae12823          	sw	x14,176(x2)
    23ec:	0f412703          	lw	x14,244(x2)
    23f0:	0a012023          	sw	x0,160(x2)
    23f4:	0a012223          	sw	x0,164(x2)
    23f8:	0ae12a23          	sw	x14,180(x2)
    23fc:	0f812703          	lw	x14,248(x2)
    2400:	0a012423          	sw	x0,168(x2)
    2404:	0a012623          	sw	x0,172(x2)
    2408:	0ae12c23          	sw	x14,184(x2)
    240c:	0fc12703          	lw	x14,252(x2)
    2410:	0ae12e23          	sw	x14,188(x2)
    2414:	6a10e0ef          	jal	x1,112b4 <__letf2>
    2418:	01412883          	lw	x17,20(x2)
    241c:	540546e3          	blt	x10,x0,3168 <_vfprintf_r+0x2550>
    2420:	0c714703          	lbu	x14,199(x2)
    2424:	04700693          	addi	x13,x0,71
    2428:	4316d663          	bge	x13,x17,2854 <_vfprintf_r+0x1c3c>
    242c:	000142b7          	lui	x5,0x14
    2430:	53428c13          	addi	x24,x5,1332 # 14534 <no_exception_handler_msg+0xe2>
    2434:	00012a23          	sw	x0,20(x2)
    2438:	02012623          	sw	x0,44(x2)
    243c:	02012423          	sw	x0,40(x2)
    2440:	02012023          	sw	x0,32(x2)
    2444:	f7fbfb93          	andi	x23,x23,-129
    2448:	00300c93          	addi	x25,x0,3
    244c:	00300d13          	addi	x26,x0,3
    2450:	00000913          	addi	x18,x0,0
    2454:	00070463          	beq	x14,x0,245c <_vfprintf_r+0x1844>
    2458:	c9dfe06f          	jal	x0,10f4 <_vfprintf_r+0x4dc>
    245c:	9edfe06f          	jal	x0,e48 <_vfprintf_r+0x230>
    2460:	01812783          	lw	x15,24(x2)
    2464:	01012703          	lw	x14,16(x2)
    2468:	0007a783          	lw	x15,0(x15)
    246c:	00e7a023          	sw	x14,0(x15)
    2470:	ac4ff06f          	jal	x0,1734 <_vfprintf_r+0xb1c>
    2474:	00048793          	addi	x15,x9,0
    2478:	000a0493          	addi	x9,x20,0
    247c:	000a8a13          	addi	x20,x21,0
    2480:	00078a93          	addi	x21,x15,0
    2484:	008d8db3          	add	x27,x27,x8
    2488:	00190913          	addi	x18,x18,1
    248c:	015d2023          	sw	x21,0(x26)
    2490:	efdfe06f          	jal	x0,138c <_vfprintf_r+0x774>
    2494:	03412783          	lw	x15,52(x2)
    2498:	0e812603          	lw	x12,232(x2)
    249c:	03812683          	lw	x13,56(x2)
    24a0:	00e78733          	add	x14,x15,x14
    24a4:	00160613          	addi	x12,x12,1
    24a8:	00d42023          	sw	x13,0(x8)
    24ac:	00f42223          	sw	x15,4(x8)
    24b0:	0ee12623          	sw	x14,236(x2)
    24b4:	0ec12423          	sw	x12,232(x2)
    24b8:	00700593          	addi	x11,x0,7
    24bc:	00840413          	addi	x8,x8,8
    24c0:	66c5c663          	blt	x11,x12,2b2c <_vfprintf_r+0x1f14>
    24c4:	580540e3          	blt	x10,x0,3244 <_vfprintf_r+0x262c>
    24c8:	02412783          	lw	x15,36(x2)
    24cc:	00160613          	addi	x12,x12,1
    24d0:	01842023          	sw	x24,0(x8)
    24d4:	00e78733          	add	x14,x15,x14
    24d8:	00f42223          	sw	x15,4(x8)
    24dc:	0ee12623          	sw	x14,236(x2)
    24e0:	0ec12423          	sw	x12,232(x2)
    24e4:	00700593          	addi	x11,x0,7
    24e8:	00c5c463          	blt	x11,x12,24f0 <_vfprintf_r+0x18d8>
    24ec:	a2dfe06f          	jal	x0,f18 <_vfprintf_r+0x300>
    24f0:	ee1fe06f          	jal	x0,13d0 <_vfprintf_r+0x7b8>
    24f4:	000c0513          	addi	x10,x24,0
    24f8:	05112823          	sw	x17,80(x2)
    24fc:	e90fe0ef          	jal	x1,b8c <strlen>
    2500:	0c714703          	lbu	x14,199(x2)
    2504:	fff54693          	xori	x13,x10,-1
    2508:	41f6d693          	srai	x13,x13,0x1f
    250c:	01512c23          	sw	x21,24(x2)
    2510:	00012a23          	sw	x0,20(x2)
    2514:	02012623          	sw	x0,44(x2)
    2518:	02012423          	sw	x0,40(x2)
    251c:	02012023          	sw	x0,32(x2)
    2520:	05012883          	lw	x17,80(x2)
    2524:	00050d13          	addi	x26,x10,0
    2528:	00d57cb3          	and	x25,x10,x13
    252c:	00000913          	addi	x18,x0,0
    2530:	00070463          	beq	x14,x0,2538 <_vfprintf_r+0x1920>
    2534:	bc1fe06f          	jal	x0,10f4 <_vfprintf_r+0x4dc>
    2538:	911fe06f          	jal	x0,e48 <_vfprintf_r+0x230>
    253c:	0fc12703          	lw	x14,252(x2)
    2540:	5c074663          	blt	x14,x0,2b0c <_vfprintf_r+0x1ef4>
    2544:	0c714703          	lbu	x14,199(x2)
    2548:	04700693          	addi	x13,x0,71
    254c:	4716dee3          	bge	x13,x17,31c8 <_vfprintf_r+0x25b0>
    2550:	000142b7          	lui	x5,0x14
    2554:	53c28c13          	addi	x24,x5,1340 # 1453c <no_exception_handler_msg+0xea>
    2558:	eddff06f          	jal	x0,2434 <_vfprintf_r+0x181c>
    255c:	00e90733          	add	x14,x18,x14
    2560:	00160613          	addi	x12,x12,1
    2564:	01542023          	sw	x21,0(x8)
    2568:	01242223          	sw	x18,4(x8)
    256c:	0ee12623          	sw	x14,236(x2)
    2570:	0ec12423          	sw	x12,232(x2)
    2574:	00700593          	addi	x11,x0,7
    2578:	00840413          	addi	x8,x8,8
    257c:	fac5d063          	bge	x11,x12,1d1c <_vfprintf_r+0x1104>
    2580:	00812583          	lw	x11,8(x2)
    2584:	0e410613          	addi	x12,x2,228
    2588:	00098513          	addi	x10,x19,0
    258c:	11d0a0ef          	jal	x1,cea8 <__sprint_r>
    2590:	d2051663          	bne	x10,x0,1abc <_vfprintf_r+0xea4>
    2594:	0ec12703          	lw	x14,236(x2)
    2598:	000b0413          	addi	x8,x22,0
    259c:	f80ff06f          	jal	x0,1d1c <_vfprintf_r+0x1104>
    25a0:	02812d03          	lw	x26,40(x2)
    25a4:	00014e37          	lui	x28,0x14
    25a8:	04912a23          	sw	x9,84(x2)
    25ac:	05712c23          	sw	x23,88(x2)
    25b0:	03912423          	sw	x25,40(x2)
    25b4:	05412e23          	sw	x20,92(x2)
    25b8:	00040613          	addi	x12,x8,0
    25bc:	04012b83          	lw	x23,64(x2)
    25c0:	02c12403          	lw	x8,44(x2)
    25c4:	04c12c83          	lw	x25,76(x2)
    25c8:	00812483          	lw	x9,8(x2)
    25cc:	00700913          	addi	x18,x0,7
    25d0:	01000d93          	addi	x27,x0,16
    25d4:	778e0a93          	addi	x21,x28,1912 # 14778 <zeroes.0>
    25d8:	080d0863          	beq	x26,x0,2668 <_vfprintf_r+0x1a50>
    25dc:	16040063          	beq	x8,x0,273c <_vfprintf_r+0x1b24>
    25e0:	fff40413          	addi	x8,x8,-1
    25e4:	04812783          	lw	x15,72(x2)
    25e8:	01970733          	add	x14,x14,x25
    25ec:	01962223          	sw	x25,4(x12)
    25f0:	00f62023          	sw	x15,0(x12)
    25f4:	0e812783          	lw	x15,232(x2)
    25f8:	0ee12623          	sw	x14,236(x2)
    25fc:	00860613          	addi	x12,x12,8
    2600:	00178793          	addi	x15,x15,1
    2604:	0ef12423          	sw	x15,232(x2)
    2608:	14f94063          	blt	x18,x15,2748 <_vfprintf_r+0x1b30>
    260c:	05012783          	lw	x15,80(x2)
    2610:	000bc683          	lbu	x13,0(x23)
    2614:	41878a33          	sub	x20,x15,x24
    2618:	0146d463          	bge	x13,x20,2620 <_vfprintf_r+0x1a08>
    261c:	00068a13          	addi	x20,x13,0
    2620:	03405663          	bge	x0,x20,264c <_vfprintf_r+0x1a34>
    2624:	0e812683          	lw	x13,232(x2)
    2628:	01470733          	add	x14,x14,x20
    262c:	01862023          	sw	x24,0(x12)
    2630:	00168693          	addi	x13,x13,1
    2634:	01462223          	sw	x20,4(x12)
    2638:	0ee12623          	sw	x14,236(x2)
    263c:	0ed12423          	sw	x13,232(x2)
    2640:	12d94463          	blt	x18,x13,2768 <_vfprintf_r+0x1b50>
    2644:	000bc683          	lbu	x13,0(x23)
    2648:	00860613          	addi	x12,x12,8
    264c:	fffa4593          	xori	x11,x20,-1
    2650:	41f5d593          	srai	x11,x11,0x1f
    2654:	00ba77b3          	and	x15,x20,x11
    2658:	40f68a33          	sub	x20,x13,x15
    265c:	03404c63          	blt	x0,x20,2694 <_vfprintf_r+0x1a7c>
    2660:	00dc0c33          	add	x24,x24,x13
    2664:	f60d1ce3          	bne	x26,x0,25dc <_vfprintf_r+0x19c4>
    2668:	f6041ce3          	bne	x8,x0,25e0 <_vfprintf_r+0x19c8>
    266c:	05012783          	lw	x15,80(x2)
    2670:	05712023          	sw	x23,64(x2)
    2674:	05412483          	lw	x9,84(x2)
    2678:	05812b83          	lw	x23,88(x2)
    267c:	05c12a03          	lw	x20,92(x2)
    2680:	02812c83          	lw	x25,40(x2)
    2684:	00060413          	addi	x8,x12,0
    2688:	eb87f263          	bgeu	x15,x24,1d2c <_vfprintf_r+0x1114>
    268c:	00078c13          	addi	x24,x15,0
    2690:	e9cff06f          	jal	x0,1d2c <_vfprintf_r+0x1114>
    2694:	000145b7          	lui	x11,0x14
    2698:	0e812683          	lw	x13,232(x2)
    269c:	77858593          	addi	x11,x11,1912 # 14778 <zeroes.0>
    26a0:	074dd863          	bge	x27,x20,2710 <_vfprintf_r+0x1af8>
    26a4:	02812023          	sw	x8,32(x2)
    26a8:	000a0413          	addi	x8,x20,0
    26ac:	000a8a13          	addi	x20,x21,0
    26b0:	00c0006f          	jal	x0,26bc <_vfprintf_r+0x1aa4>
    26b4:	ff040413          	addi	x8,x8,-16
    26b8:	048dd663          	bge	x27,x8,2704 <_vfprintf_r+0x1aec>
    26bc:	01070713          	addi	x14,x14,16
    26c0:	00168693          	addi	x13,x13,1
    26c4:	01562023          	sw	x21,0(x12)
    26c8:	01b62223          	sw	x27,4(x12)
    26cc:	0ee12623          	sw	x14,236(x2)
    26d0:	0ed12423          	sw	x13,232(x2)
    26d4:	00860613          	addi	x12,x12,8
    26d8:	fcd95ee3          	bge	x18,x13,26b4 <_vfprintf_r+0x1a9c>
    26dc:	0e410613          	addi	x12,x2,228
    26e0:	00048593          	addi	x11,x9,0
    26e4:	00098513          	addi	x10,x19,0
    26e8:	7c00a0ef          	jal	x1,cea8 <__sprint_r>
    26ec:	bc051863          	bne	x10,x0,1abc <_vfprintf_r+0xea4>
    26f0:	ff040413          	addi	x8,x8,-16
    26f4:	0ec12703          	lw	x14,236(x2)
    26f8:	0e812683          	lw	x13,232(x2)
    26fc:	000b0613          	addi	x12,x22,0
    2700:	fa8dcee3          	blt	x27,x8,26bc <_vfprintf_r+0x1aa4>
    2704:	000a0593          	addi	x11,x20,0
    2708:	00040a13          	addi	x20,x8,0
    270c:	02012403          	lw	x8,32(x2)
    2710:	00ea0733          	add	x14,x20,x14
    2714:	00168693          	addi	x13,x13,1
    2718:	00b62023          	sw	x11,0(x12)
    271c:	01462223          	sw	x20,4(x12)
    2720:	0ee12623          	sw	x14,236(x2)
    2724:	0ed12423          	sw	x13,232(x2)
    2728:	20d940e3          	blt	x18,x13,3128 <_vfprintf_r+0x2510>
    272c:	000bc683          	lbu	x13,0(x23)
    2730:	00860613          	addi	x12,x12,8
    2734:	00dc0c33          	add	x24,x24,x13
    2738:	f2dff06f          	jal	x0,2664 <_vfprintf_r+0x1a4c>
    273c:	fffb8b93          	addi	x23,x23,-1
    2740:	fffd0d13          	addi	x26,x26,-1
    2744:	ea1ff06f          	jal	x0,25e4 <_vfprintf_r+0x19cc>
    2748:	0e410613          	addi	x12,x2,228
    274c:	00048593          	addi	x11,x9,0
    2750:	00098513          	addi	x10,x19,0
    2754:	7540a0ef          	jal	x1,cea8 <__sprint_r>
    2758:	b6051263          	bne	x10,x0,1abc <_vfprintf_r+0xea4>
    275c:	0ec12703          	lw	x14,236(x2)
    2760:	000b0613          	addi	x12,x22,0
    2764:	ea9ff06f          	jal	x0,260c <_vfprintf_r+0x19f4>
    2768:	0e410613          	addi	x12,x2,228
    276c:	00048593          	addi	x11,x9,0
    2770:	00098513          	addi	x10,x19,0
    2774:	7340a0ef          	jal	x1,cea8 <__sprint_r>
    2778:	b4051263          	bne	x10,x0,1abc <_vfprintf_r+0xea4>
    277c:	000bc683          	lbu	x13,0(x23)
    2780:	0ec12703          	lw	x14,236(x2)
    2784:	000b0613          	addi	x12,x22,0
    2788:	ec5ff06f          	jal	x0,264c <_vfprintf_r+0x1a34>
    278c:	04c12783          	lw	x15,76(x2)
    2790:	04812583          	lw	x11,72(x2)
    2794:	03d12423          	sw	x29,40(x2)
    2798:	40f30333          	sub	x6,x6,x15
    279c:	00078613          	addi	x12,x15,0
    27a0:	00030513          	addi	x10,x6,0
    27a4:	03112223          	sw	x17,36(x2)
    27a8:	02e12023          	sw	x14,32(x2)
    27ac:	00612a23          	sw	x6,20(x2)
    27b0:	449070ef          	jal	x1,a3f8 <strncpy>
    27b4:	019c37b3          	sltu	x15,x24,x25
    27b8:	00500613          	addi	x12,x0,5
    27bc:	00fc07b3          	add	x15,x24,x15
    27c0:	02c7f7b3          	remu	x15,x15,x12
    27c4:	02012703          	lw	x14,32(x2)
    27c8:	ccccd637          	lui	x12,0xccccd
    27cc:	ccd60e13          	addi	x28,x12,-819 # cccccccd <__heap_end+0xcc8ccccd>
    27d0:	ccc60513          	addi	x10,x12,-820
    27d4:	00174603          	lbu	x12,1(x14)
    27d8:	01412303          	lw	x6,20(x2)
    27dc:	02412883          	lw	x17,36(x2)
    27e0:	00c03633          	sltu	x12,x0,x12
    27e4:	00c70733          	add	x14,x14,x12
    27e8:	02812e83          	lw	x29,40(x2)
    27ec:	00000593          	addi	x11,x0,0
    27f0:	00500813          	addi	x16,x0,5
    27f4:	000e0693          	addi	x13,x28,0
    27f8:	40fc87b3          	sub	x15,x25,x15
    27fc:	00fcb633          	sltu	x12,x25,x15
    2800:	40cd0633          	sub	x12,x26,x12
    2804:	02a78533          	mul	x10,x15,x10
    2808:	03c60633          	mul	x12,x12,x28
    280c:	03c7bf33          	mulhu	x30,x15,x28
    2810:	00a60633          	add	x12,x12,x10
    2814:	03c78533          	mul	x10,x15,x28
    2818:	01e60633          	add	x12,x12,x30
    281c:	01f61793          	slli	x15,x12,0x1f
    2820:	00165613          	srli	x12,x12,0x1
    2824:	00155513          	srli	x10,x10,0x1
    2828:	00a7e7b3          	or	x15,x15,x10
    282c:	a49ff06f          	jal	x0,2274 <_vfprintf_r+0x165c>
    2830:	00812583          	lw	x11,8(x2)
    2834:	0e410613          	addi	x12,x2,228
    2838:	00098513          	addi	x10,x19,0
    283c:	66c0a0ef          	jal	x1,cea8 <__sprint_r>
    2840:	a6051e63          	bne	x10,x0,1abc <_vfprintf_r+0xea4>
    2844:	0cc12503          	lw	x10,204(x2)
    2848:	0ec12703          	lw	x14,236(x2)
    284c:	000b0413          	addi	x8,x22,0
    2850:	af9ff06f          	jal	x0,2348 <_vfprintf_r+0x1730>
    2854:	000142b7          	lui	x5,0x14
    2858:	53028c13          	addi	x24,x5,1328 # 14530 <no_exception_handler_msg+0xde>
    285c:	bd9ff06f          	jal	x0,2434 <_vfprintf_r+0x181c>
    2860:	00090693          	addi	x13,x18,0
    2864:	00200613          	addi	x12,x0,2
    2868:	0b010b93          	addi	x23,x2,176
    286c:	0d010793          	addi	x15,x2,208
    2870:	0dc10813          	addi	x16,x2,220
    2874:	0cc10713          	addi	x14,x2,204
    2878:	000b8593          	addi	x11,x23,0
    287c:	00098513          	addi	x10,x19,0
    2880:	05112a23          	sw	x17,84(x2)
    2884:	04d12823          	sw	x13,80(x2)
    2888:	0be12823          	sw	x30,176(x2)
    288c:	03e12423          	sw	x30,40(x2)
    2890:	0bd12a23          	sw	x29,180(x2)
    2894:	03d12223          	sw	x29,36(x2)
    2898:	0bc12c23          	sw	x28,184(x2)
    289c:	03c12023          	sw	x28,32(x2)
    28a0:	0bb12e23          	sw	x27,188(x2)
    28a4:	3f5030ef          	jal	x1,6498 <_ldtoa_r>
    28a8:	05412883          	lw	x17,84(x2)
    28ac:	06700793          	addi	x15,x0,103
    28b0:	02012e03          	lw	x28,32(x2)
    28b4:	02412e83          	lw	x29,36(x2)
    28b8:	02812f03          	lw	x30,40(x2)
    28bc:	05012683          	lw	x13,80(x2)
    28c0:	00050c13          	addi	x24,x10,0
    28c4:	7af88263          	beq	x17,x15,3068 <_vfprintf_r+0x2450>
    28c8:	04700793          	addi	x15,x0,71
    28cc:	78f88e63          	beq	x17,x15,3068 <_vfprintf_r+0x2450>
    28d0:	fdf8fa93          	andi	x21,x17,-33
    28d4:	04600613          	addi	x12,x0,70
    28d8:	00d50cb3          	add	x25,x10,x13
    28dc:	0a010d13          	addi	x26,x2,160
    28e0:	00ca9c63          	bne	x21,x12,28f8 <_vfprintf_r+0x1ce0>
    28e4:	00054583          	lbu	x11,0(x10)
    28e8:	03000613          	addi	x12,x0,48
    28ec:	5ec58863          	beq	x11,x12,2edc <_vfprintf_r+0x22c4>
    28f0:	0cc12683          	lw	x13,204(x2)
    28f4:	00dc8cb3          	add	x25,x25,x13
    28f8:	000b8513          	addi	x10,x23,0
    28fc:	000d0593          	addi	x11,x26,0
    2900:	03112023          	sw	x17,32(x2)
    2904:	0be12823          	sw	x30,176(x2)
    2908:	0bd12a23          	sw	x29,180(x2)
    290c:	0bc12c23          	sw	x28,184(x2)
    2910:	0bb12e23          	sw	x27,188(x2)
    2914:	0a012023          	sw	x0,160(x2)
    2918:	0a012223          	sw	x0,164(x2)
    291c:	0a012423          	sw	x0,168(x2)
    2920:	0a012623          	sw	x0,172(x2)
    2924:	7580e0ef          	jal	x1,1107c <__eqtf2>
    2928:	02012883          	lw	x17,32(x2)
    292c:	000c8b93          	addi	x23,x25,0
    2930:	02050263          	beq	x10,x0,2954 <_vfprintf_r+0x1d3c>
    2934:	0dc12b83          	lw	x23,220(x2)
    2938:	019bfe63          	bgeu	x23,x25,2954 <_vfprintf_r+0x1d3c>
    293c:	03000613          	addi	x12,x0,48
    2940:	001b8793          	addi	x15,x23,1
    2944:	0cf12e23          	sw	x15,220(x2)
    2948:	00cb8023          	sb	x12,0(x23)
    294c:	0dc12b83          	lw	x23,220(x2)
    2950:	ff9be8e3          	bltu	x23,x25,2940 <_vfprintf_r+0x1d28>
    2954:	418b87b3          	sub	x15,x23,x24
    2958:	02f12223          	sw	x15,36(x2)
    295c:	0cc12683          	lw	x13,204(x2)
    2960:	04700793          	addi	x15,x0,71
    2964:	02d12023          	sw	x13,32(x2)
    2968:	70fa8e63          	beq	x21,x15,3084 <_vfprintf_r+0x246c>
    296c:	04600793          	addi	x15,x0,70
    2970:	14fa88e3          	beq	x21,x15,32c0 <_vfprintf_r+0x26a8>
    2974:	fff68793          	addi	x15,x13,-1
    2978:	0cf12623          	sw	x15,204(x2)
    297c:	06100713          	addi	x14,x0,97
    2980:	38e880e3          	beq	x17,x14,3500 <_vfprintf_r+0x28e8>
    2984:	04100613          	addi	x12,x0,65
    2988:	05000713          	addi	x14,x0,80
    298c:	70c89a63          	bne	x17,x12,30a0 <_vfprintf_r+0x2488>
    2990:	00100613          	addi	x12,x0,1
    2994:	0ce10a23          	sb	x14,212(x2)
    2998:	02b00713          	addi	x14,x0,43
    299c:	0007d863          	bge	x15,x0,29ac <_vfprintf_r+0x1d94>
    29a0:	00100793          	addi	x15,x0,1
    29a4:	40d787b3          	sub	x15,x15,x13
    29a8:	02d00713          	addi	x14,x0,45
    29ac:	0ce10aa3          	sb	x14,213(x2)
    29b0:	00900713          	addi	x14,x0,9
    29b4:	18f756e3          	bge	x14,x15,3340 <_vfprintf_r+0x2728>
    29b8:	0e310813          	addi	x16,x2,227
    29bc:	00080613          	addi	x12,x16,0
    29c0:	00a00593          	addi	x11,x0,10
    29c4:	06300e13          	addi	x28,x0,99
    29c8:	02b7e733          	rem	x14,x15,x11
    29cc:	00060693          	addi	x13,x12,0
    29d0:	00078513          	addi	x10,x15,0
    29d4:	fff60613          	addi	x12,x12,-1
    29d8:	03070713          	addi	x14,x14,48
    29dc:	fee68fa3          	sb	x14,-1(x13)
    29e0:	02b7c7b3          	div	x15,x15,x11
    29e4:	feae42e3          	blt	x28,x10,29c8 <_vfprintf_r+0x1db0>
    29e8:	03078793          	addi	x15,x15,48
    29ec:	ffe68713          	addi	x14,x13,-2
    29f0:	fef60fa3          	sb	x15,-1(x12)
    29f4:	31077ae3          	bgeu	x14,x16,3508 <_vfprintf_r+0x28f0>
    29f8:	0d610793          	addi	x15,x2,214
    29fc:	00074603          	lbu	x12,0(x14)
    2a00:	00170713          	addi	x14,x14,1
    2a04:	00178793          	addi	x15,x15,1
    2a08:	fec78fa3          	sb	x12,-1(x15)
    2a0c:	ff0718e3          	bne	x14,x16,29fc <_vfprintf_r+0x1de4>
    2a10:	0e510793          	addi	x15,x2,229
    2a14:	0d610713          	addi	x14,x2,214
    2a18:	40d787b3          	sub	x15,x15,x13
    2a1c:	00f707b3          	add	x15,x14,x15
    2a20:	0d410713          	addi	x14,x2,212
    2a24:	40e787b3          	sub	x15,x15,x14
    2a28:	04f12223          	sw	x15,68(x2)
    2a2c:	04412683          	lw	x13,68(x2)
    2a30:	02412703          	lw	x14,36(x2)
    2a34:	00100793          	addi	x15,x0,1
    2a38:	00e68d33          	add	x26,x13,x14
    2a3c:	1ae7dae3          	bge	x15,x14,33f0 <_vfprintf_r+0x27d8>
    2a40:	03412783          	lw	x15,52(x2)
    2a44:	00fd0d33          	add	x26,x26,x15
    2a48:	02c12783          	lw	x15,44(x2)
    2a4c:	fffd4693          	xori	x13,x26,-1
    2a50:	41f6d693          	srai	x13,x13,0x1f
    2a54:	bff7f793          	andi	x15,x15,-1025
    2a58:	1007eb93          	ori	x23,x15,256
    2a5c:	00dd7cb3          	and	x25,x26,x13
    2a60:	02012623          	sw	x0,44(x2)
    2a64:	02012423          	sw	x0,40(x2)
    2a68:	02012023          	sw	x0,32(x2)
    2a6c:	06012783          	lw	x15,96(x2)
    2a70:	62078e63          	beq	x15,x0,30ac <_vfprintf_r+0x2494>
    2a74:	02d00713          	addi	x14,x0,45
    2a78:	0ce103a3          	sb	x14,199(x2)
    2a7c:	00000913          	addi	x18,x0,0
    2a80:	001c8c93          	addi	x25,x25,1
    2a84:	bc4fe06f          	jal	x0,e48 <_vfprintf_r+0x230>
    2a88:	00812583          	lw	x11,8(x2)
    2a8c:	0e410613          	addi	x12,x2,228
    2a90:	00098513          	addi	x10,x19,0
    2a94:	4140a0ef          	jal	x1,cea8 <__sprint_r>
    2a98:	00050463          	beq	x10,x0,2aa0 <_vfprintf_r+0x1e88>
    2a9c:	820ff06f          	jal	x0,1abc <_vfprintf_r+0xea4>
    2aa0:	0ec12703          	lw	x14,236(x2)
    2aa4:	000b0413          	addi	x8,x22,0
    2aa8:	a5cff06f          	jal	x0,1d04 <_vfprintf_r+0x10ec>
    2aac:	00600d13          	addi	x26,x0,6
    2ab0:	e48ff06f          	jal	x0,20f8 <_vfprintf_r+0x14e0>
    2ab4:	40c78633          	sub	x12,x15,x12
    2ab8:	05012783          	lw	x15,80(x2)
    2abc:	41878933          	sub	x18,x15,x24
    2ac0:	af265e63          	bge	x12,x18,1dbc <_vfprintf_r+0x11a4>
    2ac4:	00060913          	addi	x18,x12,0
    2ac8:	af4ff06f          	jal	x0,1dbc <_vfprintf_r+0x11a4>
    2acc:	01812783          	lw	x15,24(x2)
    2ad0:	01012703          	lw	x14,16(x2)
    2ad4:	0007a783          	lw	x15,0(x15)
    2ad8:	00e79023          	sh	x14,0(x15)
    2adc:	c59fe06f          	jal	x0,1734 <_vfprintf_r+0xb1c>
    2ae0:	0ffcfc93          	andi	x25,x25,255
    2ae4:	00000d13          	addi	x26,x0,0
    2ae8:	d88ff06f          	jal	x0,2070 <_vfprintf_r+0x1458>
    2aec:	018c9c93          	slli	x25,x25,0x18
    2af0:	418cdc93          	srai	x25,x25,0x18
    2af4:	41fcdd13          	srai	x26,x25,0x1f
    2af8:	000d0713          	addi	x14,x26,0
    2afc:	da8fe06f          	jal	x0,10a4 <_vfprintf_r+0x48c>
    2b00:	0ffcfc93          	andi	x25,x25,255
    2b04:	00000d13          	addi	x26,x0,0
    2b08:	e1cfe06f          	jal	x0,1124 <_vfprintf_r+0x50c>
    2b0c:	02d00713          	addi	x14,x0,45
    2b10:	0ce103a3          	sb	x14,199(x2)
    2b14:	a35ff06f          	jal	x0,2548 <_vfprintf_r+0x1930>
    2b18:	00812583          	lw	x11,8(x2)
    2b1c:	03012503          	lw	x10,48(x2)
    2b20:	0e410613          	addi	x12,x2,228
    2b24:	3840a0ef          	jal	x1,cea8 <__sprint_r>
    2b28:	c54fe06f          	jal	x0,f7c <_vfprintf_r+0x364>
    2b2c:	00812583          	lw	x11,8(x2)
    2b30:	0e410613          	addi	x12,x2,228
    2b34:	00098513          	addi	x10,x19,0
    2b38:	3700a0ef          	jal	x1,cea8 <__sprint_r>
    2b3c:	00050463          	beq	x10,x0,2b44 <_vfprintf_r+0x1f2c>
    2b40:	f7dfe06f          	jal	x0,1abc <_vfprintf_r+0xea4>
    2b44:	0cc12503          	lw	x10,204(x2)
    2b48:	0ec12703          	lw	x14,236(x2)
    2b4c:	0e812603          	lw	x12,232(x2)
    2b50:	000b0413          	addi	x8,x22,0
    2b54:	971ff06f          	jal	x0,24c4 <_vfprintf_r+0x18ac>
    2b58:	05800713          	addi	x14,x0,88
    2b5c:	03000693          	addi	x13,x0,48
    2b60:	002be793          	ori	x15,x23,2
    2b64:	0ce104a3          	sb	x14,201(x2)
    2b68:	0cd10423          	sb	x13,200(x2)
    2b6c:	06300713          	addi	x14,x0,99
    2b70:	02f12623          	sw	x15,44(x2)
    2b74:	00012a23          	sw	x0,20(x2)
    2b78:	14c10c13          	addi	x24,x2,332
    2b7c:	052748e3          	blt	x14,x18,33cc <_vfprintf_r+0x27b4>
    2b80:	0fc12d83          	lw	x27,252(x2)
    2b84:	102be793          	ori	x15,x23,258
    2b88:	04f12e23          	sw	x15,92(x2)
    2b8c:	06012023          	sw	x0,96(x2)
    2b90:	0f012f03          	lw	x30,240(x2)
    2b94:	0f412e83          	lw	x29,244(x2)
    2b98:	0f812e03          	lw	x28,248(x2)
    2b9c:	560dcc63          	blt	x27,x0,3114 <_vfprintf_r+0x24fc>
    2ba0:	06100793          	addi	x15,x0,97
    2ba4:	00f88463          	beq	x17,x15,2bac <_vfprintf_r+0x1f94>
    2ba8:	ed0fe06f          	jal	x0,1278 <_vfprintf_r+0x660>
    2bac:	0b010b93          	addi	x23,x2,176
    2bb0:	000b8513          	addi	x10,x23,0
    2bb4:	07112223          	sw	x17,100(x2)
    2bb8:	0be12823          	sw	x30,176(x2)
    2bbc:	0bd12a23          	sw	x29,180(x2)
    2bc0:	0bc12c23          	sw	x28,184(x2)
    2bc4:	0bb12e23          	sw	x27,188(x2)
    2bc8:	1b0110ef          	jal	x1,13d78 <__trunctfdf2>
    2bcc:	0cc10613          	addi	x12,x2,204
    2bd0:	304070ef          	jal	x1,9ed4 <frexp>
    2bd4:	00058613          	addi	x12,x11,0
    2bd8:	00050593          	addi	x11,x10,0
    2bdc:	000b8513          	addi	x10,x23,0
    2be0:	78d100ef          	jal	x1,13b6c <__extenddftf2>
    2be4:	09010793          	addi	x15,x2,144
    2be8:	00078593          	addi	x11,x15,0
    2bec:	02f12023          	sw	x15,32(x2)
    2bf0:	0b012783          	lw	x15,176(x2)
    2bf4:	0a010d13          	addi	x26,x2,160
    2bf8:	08010613          	addi	x12,x2,128
    2bfc:	08f12823          	sw	x15,144(x2)
    2c00:	0b412783          	lw	x15,180(x2)
    2c04:	000d0513          	addi	x10,x26,0
    2c08:	04c12a23          	sw	x12,84(x2)
    2c0c:	08f12a23          	sw	x15,148(x2)
    2c10:	0b812783          	lw	x15,184(x2)
    2c14:	08012023          	sw	x0,128(x2)
    2c18:	08012223          	sw	x0,132(x2)
    2c1c:	08f12c23          	sw	x15,152(x2)
    2c20:	0bc12783          	lw	x15,188(x2)
    2c24:	08012423          	sw	x0,136(x2)
    2c28:	08f12e23          	sw	x15,156(x2)
    2c2c:	3ffc07b7          	lui	x15,0x3ffc0
    2c30:	08f12623          	sw	x15,140(x2)
    2c34:	7e40e0ef          	jal	x1,11418 <__multf3>
    2c38:	0a012703          	lw	x14,160(x2)
    2c3c:	0a412683          	lw	x13,164(x2)
    2c40:	0a812803          	lw	x16,168(x2)
    2c44:	0ac12e03          	lw	x28,172(x2)
    2c48:	000d0593          	addi	x11,x26,0
    2c4c:	000b8513          	addi	x10,x23,0
    2c50:	0ae12823          	sw	x14,176(x2)
    2c54:	04e12c23          	sw	x14,88(x2)
    2c58:	0ad12a23          	sw	x13,180(x2)
    2c5c:	04d12823          	sw	x13,80(x2)
    2c60:	0b012c23          	sw	x16,184(x2)
    2c64:	03012423          	sw	x16,40(x2)
    2c68:	0bc12e23          	sw	x28,188(x2)
    2c6c:	03c12223          	sw	x28,36(x2)
    2c70:	0a012023          	sw	x0,160(x2)
    2c74:	0a012223          	sw	x0,164(x2)
    2c78:	0a012423          	sw	x0,168(x2)
    2c7c:	0a012623          	sw	x0,172(x2)
    2c80:	3fc0e0ef          	jal	x1,1107c <__eqtf2>
    2c84:	02412e03          	lw	x28,36(x2)
    2c88:	02812803          	lw	x16,40(x2)
    2c8c:	05012683          	lw	x13,80(x2)
    2c90:	05812703          	lw	x14,88(x2)
    2c94:	06412883          	lw	x17,100(x2)
    2c98:	3a050a63          	beq	x10,x0,304c <_vfprintf_r+0x2434>
    2c9c:	000147b7          	lui	x15,0x14
    2ca0:	54078393          	addi	x7,x15,1344 # 14540 <no_exception_handler_msg+0xee>
    2ca4:	fff90c93          	addi	x25,x18,-1
    2ca8:	07212823          	sw	x18,112(x2)
    2cac:	06812a23          	sw	x8,116(x2)
    2cb0:	000c0913          	addi	x18,x24,0
    2cb4:	07312c23          	sw	x19,120(x2)
    2cb8:	07812e23          	sw	x24,124(x2)
    2cbc:	06912223          	sw	x9,100(x2)
    2cc0:	07112423          	sw	x17,104(x2)
    2cc4:	07412623          	sw	x20,108(x2)
    2cc8:	04712823          	sw	x7,80(x2)
    2ccc:	00070993          	addi	x19,x14,0
    2cd0:	00068a93          	addi	x21,x13,0
    2cd4:	00080c13          	addi	x24,x16,0
    2cd8:	000e0413          	addi	x8,x28,0
    2cdc:	04c0006f          	jal	x0,2d28 <_vfprintf_r+0x2110>
    2ce0:	000d0593          	addi	x11,x26,0
    2ce4:	000b8513          	addi	x10,x23,0
    2ce8:	02f12423          	sw	x15,40(x2)
    2cec:	02c12223          	sw	x12,36(x2)
    2cf0:	0ac12c23          	sw	x12,184(x2)
    2cf4:	0af12e23          	sw	x15,188(x2)
    2cf8:	0a912823          	sw	x9,176(x2)
    2cfc:	0b412a23          	sw	x20,180(x2)
    2d00:	0a012023          	sw	x0,160(x2)
    2d04:	0a012223          	sw	x0,164(x2)
    2d08:	0a012423          	sw	x0,168(x2)
    2d0c:	0a012623          	sw	x0,172(x2)
    2d10:	36c0e0ef          	jal	x1,1107c <__eqtf2>
    2d14:	fffc8593          	addi	x11,x25,-1
    2d18:	000c0613          	addi	x12,x24,0
    2d1c:	00040793          	addi	x15,x8,0
    2d20:	6e050c63          	beq	x10,x0,3418 <_vfprintf_r+0x2800>
    2d24:	00058c93          	addi	x25,x11,0
    2d28:	02012603          	lw	x12,32(x2)
    2d2c:	400307b7          	lui	x15,0x40030
    2d30:	000d0593          	addi	x11,x26,0
    2d34:	000b8513          	addi	x10,x23,0
    2d38:	08f12e23          	sw	x15,156(x2)
    2d3c:	0b312023          	sw	x19,160(x2)
    2d40:	0b512223          	sw	x21,164(x2)
    2d44:	0b812423          	sw	x24,168(x2)
    2d48:	0a812623          	sw	x8,172(x2)
    2d4c:	08012823          	sw	x0,144(x2)
    2d50:	08012a23          	sw	x0,148(x2)
    2d54:	08012c23          	sw	x0,152(x2)
    2d58:	6c00e0ef          	jal	x1,11418 <__multf3>
    2d5c:	000b8513          	addi	x10,x23,0
    2d60:	3c5100ef          	jal	x1,13924 <__fixtfsi>
    2d64:	00050593          	addi	x11,x10,0
    2d68:	00050d93          	addi	x27,x10,0
    2d6c:	000b8513          	addi	x10,x23,0
    2d70:	0b012a03          	lw	x20,176(x2)
    2d74:	0b412983          	lw	x19,180(x2)
    2d78:	0b812483          	lw	x9,184(x2)
    2d7c:	0bc12403          	lw	x8,188(x2)
    2d80:	499100ef          	jal	x1,13a18 <__floatsitf>
    2d84:	0b012783          	lw	x15,176(x2)
    2d88:	05412603          	lw	x12,84(x2)
    2d8c:	02012583          	lw	x11,32(x2)
    2d90:	08f12023          	sw	x15,128(x2)
    2d94:	0b412783          	lw	x15,180(x2)
    2d98:	000d0513          	addi	x10,x26,0
    2d9c:	09412823          	sw	x20,144(x2)
    2da0:	08f12223          	sw	x15,132(x2)
    2da4:	0b812783          	lw	x15,184(x2)
    2da8:	09312a23          	sw	x19,148(x2)
    2dac:	08912c23          	sw	x9,152(x2)
    2db0:	08f12423          	sw	x15,136(x2)
    2db4:	0bc12783          	lw	x15,188(x2)
    2db8:	08812e23          	sw	x8,156(x2)
    2dbc:	08f12623          	sw	x15,140(x2)
    2dc0:	6b00f0ef          	jal	x1,12470 <__subtf3>
    2dc4:	05012783          	lw	x15,80(x2)
    2dc8:	0a012483          	lw	x9,160(x2)
    2dcc:	0a412a03          	lw	x20,164(x2)
    2dd0:	01b787b3          	add	x15,x15,x27
    2dd4:	0007c703          	lbu	x14,0(x15) # 40030000 <__heap_end+0x3fc30000>
    2dd8:	0a812603          	lw	x12,168(x2)
    2ddc:	0ac12783          	lw	x15,172(x2)
    2de0:	05212c23          	sw	x18,88(x2)
    2de4:	00e90023          	sb	x14,0(x18)
    2de8:	fff00713          	addi	x14,x0,-1
    2dec:	00190913          	addi	x18,x18,1
    2df0:	00048993          	addi	x19,x9,0
    2df4:	000a0a93          	addi	x21,x20,0
    2df8:	00060c13          	addi	x24,x12,0
    2dfc:	00078413          	addi	x8,x15,0
    2e00:	eeec90e3          	bne	x25,x14,2ce0 <_vfprintf_r+0x20c8>
    2e04:	00090a93          	addi	x21,x18,0
    2e08:	00048f13          	addi	x30,x9,0
    2e0c:	000a0e93          	addi	x29,x20,0
    2e10:	06812883          	lw	x17,104(x2)
    2e14:	07412403          	lw	x8,116(x2)
    2e18:	07012903          	lw	x18,112(x2)
    2e1c:	05012383          	lw	x7,80(x2)
    2e20:	07812983          	lw	x19,120(x2)
    2e24:	07c12c03          	lw	x24,124(x2)
    2e28:	06412483          	lw	x9,100(x2)
    2e2c:	06c12a03          	lw	x20,108(x2)
    2e30:	fff00713          	addi	x14,x0,-1
    2e34:	3ffe06b7          	lui	x13,0x3ffe0
    2e38:	000d0593          	addi	x11,x26,0
    2e3c:	000b8513          	addi	x10,x23,0
    2e40:	02712223          	sw	x7,36(x2)
    2e44:	03112023          	sw	x17,32(x2)
    2e48:	06e12423          	sw	x14,104(x2)
    2e4c:	0be12823          	sw	x30,176(x2)
    2e50:	07e12223          	sw	x30,100(x2)
    2e54:	0bd12a23          	sw	x29,180(x2)
    2e58:	05d12a23          	sw	x29,84(x2)
    2e5c:	0ac12c23          	sw	x12,184(x2)
    2e60:	04c12823          	sw	x12,80(x2)
    2e64:	0af12e23          	sw	x15,188(x2)
    2e68:	02f12423          	sw	x15,40(x2)
    2e6c:	0a012023          	sw	x0,160(x2)
    2e70:	0a012223          	sw	x0,164(x2)
    2e74:	0a012423          	sw	x0,168(x2)
    2e78:	0ad12623          	sw	x13,172(x2)
    2e7c:	2d40e0ef          	jal	x1,11150 <__getf2>
    2e80:	02012883          	lw	x17,32(x2)
    2e84:	02412383          	lw	x7,36(x2)
    2e88:	4ea04463          	blt	x0,x10,3370 <_vfprintf_r+0x2758>
    2e8c:	000d0593          	addi	x11,x26,0
    2e90:	000b8513          	addi	x10,x23,0
    2e94:	1e80e0ef          	jal	x1,1107c <__eqtf2>
    2e98:	02012883          	lw	x17,32(x2)
    2e9c:	02412383          	lw	x7,36(x2)
    2ea0:	06812703          	lw	x14,104(x2)
    2ea4:	00051663          	bne	x10,x0,2eb0 <_vfprintf_r+0x2298>
    2ea8:	001dfd93          	andi	x27,x27,1
    2eac:	4c0d9263          	bne	x27,x0,3370 <_vfprintf_r+0x2758>
    2eb0:	00170b93          	addi	x23,x14,1
    2eb4:	017a8bb3          	add	x23,x21,x23
    2eb8:	03000693          	addi	x13,x0,48
    2ebc:	4e074e63          	blt	x14,x0,33b8 <_vfprintf_r+0x27a0>
    2ec0:	001a8a93          	addi	x21,x21,1
    2ec4:	feda8fa3          	sb	x13,-1(x21)
    2ec8:	ff5b9ce3          	bne	x23,x21,2ec0 <_vfprintf_r+0x22a8>
    2ecc:	418b87b3          	sub	x15,x23,x24
    2ed0:	02f12223          	sw	x15,36(x2)
    2ed4:	fdf8fa93          	andi	x21,x17,-33
    2ed8:	a85ff06f          	jal	x0,295c <_vfprintf_r+0x1d44>
    2edc:	000d0593          	addi	x11,x26,0
    2ee0:	000b8513          	addi	x10,x23,0
    2ee4:	05112823          	sw	x17,80(x2)
    2ee8:	0be12823          	sw	x30,176(x2)
    2eec:	03e12423          	sw	x30,40(x2)
    2ef0:	0bd12a23          	sw	x29,180(x2)
    2ef4:	03d12223          	sw	x29,36(x2)
    2ef8:	0bc12c23          	sw	x28,184(x2)
    2efc:	03c12023          	sw	x28,32(x2)
    2f00:	04d12a23          	sw	x13,84(x2)
    2f04:	0bb12e23          	sw	x27,188(x2)
    2f08:	0a012023          	sw	x0,160(x2)
    2f0c:	0a012223          	sw	x0,164(x2)
    2f10:	0a012423          	sw	x0,168(x2)
    2f14:	0a012623          	sw	x0,172(x2)
    2f18:	1640e0ef          	jal	x1,1107c <__eqtf2>
    2f1c:	02012e03          	lw	x28,32(x2)
    2f20:	02412e83          	lw	x29,36(x2)
    2f24:	02812f03          	lw	x30,40(x2)
    2f28:	05012883          	lw	x17,80(x2)
    2f2c:	9c0502e3          	beq	x10,x0,28f0 <_vfprintf_r+0x1cd8>
    2f30:	05412683          	lw	x13,84(x2)
    2f34:	00100613          	addi	x12,x0,1
    2f38:	40d606b3          	sub	x13,x12,x13
    2f3c:	0cd12623          	sw	x13,204(x2)
    2f40:	9b5ff06f          	jal	x0,28f4 <_vfprintf_r+0x1cdc>
    2f44:	00190693          	addi	x13,x18,1
    2f48:	00200613          	addi	x12,x0,2
    2f4c:	91dff06f          	jal	x0,2868 <_vfprintf_r+0x1c50>
    2f50:	00090693          	addi	x13,x18,0
    2f54:	00300613          	addi	x12,x0,3
    2f58:	911ff06f          	jal	x0,2868 <_vfprintf_r+0x1c50>
    2f5c:	0b010b93          	addi	x23,x2,176
    2f60:	000b8513          	addi	x10,x23,0
    2f64:	07112223          	sw	x17,100(x2)
    2f68:	0be12823          	sw	x30,176(x2)
    2f6c:	0bd12a23          	sw	x29,180(x2)
    2f70:	0bc12c23          	sw	x28,184(x2)
    2f74:	0bb12e23          	sw	x27,188(x2)
    2f78:	601100ef          	jal	x1,13d78 <__trunctfdf2>
    2f7c:	0cc10613          	addi	x12,x2,204
    2f80:	755060ef          	jal	x1,9ed4 <frexp>
    2f84:	00058613          	addi	x12,x11,0
    2f88:	00050593          	addi	x11,x10,0
    2f8c:	000b8513          	addi	x10,x23,0
    2f90:	3dd100ef          	jal	x1,13b6c <__extenddftf2>
    2f94:	09010793          	addi	x15,x2,144
    2f98:	00078593          	addi	x11,x15,0
    2f9c:	02f12023          	sw	x15,32(x2)
    2fa0:	0b012783          	lw	x15,176(x2)
    2fa4:	0a010d13          	addi	x26,x2,160
    2fa8:	08010613          	addi	x12,x2,128
    2fac:	08f12823          	sw	x15,144(x2)
    2fb0:	0b412783          	lw	x15,180(x2)
    2fb4:	000d0513          	addi	x10,x26,0
    2fb8:	04c12a23          	sw	x12,84(x2)
    2fbc:	08f12a23          	sw	x15,148(x2)
    2fc0:	0b812783          	lw	x15,184(x2)
    2fc4:	08012023          	sw	x0,128(x2)
    2fc8:	08012223          	sw	x0,132(x2)
    2fcc:	08f12c23          	sw	x15,152(x2)
    2fd0:	0bc12783          	lw	x15,188(x2)
    2fd4:	08012423          	sw	x0,136(x2)
    2fd8:	08f12e23          	sw	x15,156(x2)
    2fdc:	3ffc07b7          	lui	x15,0x3ffc0
    2fe0:	08f12623          	sw	x15,140(x2)
    2fe4:	4340e0ef          	jal	x1,11418 <__multf3>
    2fe8:	0a012703          	lw	x14,160(x2)
    2fec:	0a412683          	lw	x13,164(x2)
    2ff0:	0a812803          	lw	x16,168(x2)
    2ff4:	0ac12e03          	lw	x28,172(x2)
    2ff8:	000d0593          	addi	x11,x26,0
    2ffc:	000b8513          	addi	x10,x23,0
    3000:	0ae12823          	sw	x14,176(x2)
    3004:	04e12c23          	sw	x14,88(x2)
    3008:	0ad12a23          	sw	x13,180(x2)
    300c:	04d12823          	sw	x13,80(x2)
    3010:	0b012c23          	sw	x16,184(x2)
    3014:	03012423          	sw	x16,40(x2)
    3018:	0bc12e23          	sw	x28,188(x2)
    301c:	03c12223          	sw	x28,36(x2)
    3020:	0a012023          	sw	x0,160(x2)
    3024:	0a012223          	sw	x0,164(x2)
    3028:	0a012423          	sw	x0,168(x2)
    302c:	0a012623          	sw	x0,172(x2)
    3030:	04c0e0ef          	jal	x1,1107c <__eqtf2>
    3034:	02412e03          	lw	x28,36(x2)
    3038:	02812803          	lw	x16,40(x2)
    303c:	05012683          	lw	x13,80(x2)
    3040:	05812703          	lw	x14,88(x2)
    3044:	06412883          	lw	x17,100(x2)
    3048:	00051a63          	bne	x10,x0,305c <_vfprintf_r+0x2444>
    304c:	00100793          	addi	x15,x0,1
    3050:	0cf12623          	sw	x15,204(x2)
    3054:	06100793          	addi	x15,x0,97
    3058:	c4f882e3          	beq	x17,x15,2c9c <_vfprintf_r+0x2084>
    305c:	000147b7          	lui	x15,0x14
    3060:	55478393          	addi	x7,x15,1364 # 14554 <no_exception_handler_msg+0x102>
    3064:	c41ff06f          	jal	x0,2ca4 <_vfprintf_r+0x208c>
    3068:	02c12783          	lw	x15,44(x2)
    306c:	0017f793          	andi	x15,x15,1
    3070:	2c079063          	bne	x15,x0,3330 <_vfprintf_r+0x2718>
    3074:	0dc12b83          	lw	x23,220(x2)
    3078:	0cc12683          	lw	x13,204(x2)
    307c:	418b87b3          	sub	x15,x23,x24
    3080:	02f12223          	sw	x15,36(x2)
    3084:	ffd00793          	addi	x15,x0,-3
    3088:	02d12023          	sw	x13,32(x2)
    308c:	00f6c463          	blt	x13,x15,3094 <_vfprintf_r+0x247c>
    3090:	02d95863          	bge	x18,x13,30c0 <_vfprintf_r+0x24a8>
    3094:	fff68793          	addi	x15,x13,-1 # 3ffdffff <__heap_end+0x3fbdffff>
    3098:	ffe88893          	addi	x17,x17,-2
    309c:	0cf12623          	sw	x15,204(x2)
    30a0:	0ff8f713          	andi	x14,x17,255
    30a4:	00000613          	addi	x12,x0,0
    30a8:	8edff06f          	jal	x0,2994 <_vfprintf_r+0x1d7c>
    30ac:	0c714703          	lbu	x14,199(x2)
    30b0:	00000913          	addi	x18,x0,0
    30b4:	00070463          	beq	x14,x0,30bc <_vfprintf_r+0x24a4>
    30b8:	83cfe06f          	jal	x0,10f4 <_vfprintf_r+0x4dc>
    30bc:	d8dfd06f          	jal	x0,e48 <_vfprintf_r+0x230>
    30c0:	02412783          	lw	x15,36(x2)
    30c4:	14f6c463          	blt	x13,x15,320c <_vfprintf_r+0x25f4>
    30c8:	02c12783          	lw	x15,44(x2)
    30cc:	00068d13          	addi	x26,x13,0
    30d0:	0017f793          	andi	x15,x15,1
    30d4:	00078663          	beq	x15,x0,30e0 <_vfprintf_r+0x24c8>
    30d8:	03412783          	lw	x15,52(x2)
    30dc:	00f68d33          	add	x26,x13,x15
    30e0:	02c12783          	lw	x15,44(x2)
    30e4:	4007f793          	andi	x15,x15,1024
    30e8:	00078463          	beq	x15,x0,30f0 <_vfprintf_r+0x24d8>
    30ec:	36d04063          	blt	x0,x13,344c <_vfprintf_r+0x2834>
    30f0:	fffd4693          	xori	x13,x26,-1
    30f4:	05c12b83          	lw	x23,92(x2)
    30f8:	41f6d693          	srai	x13,x13,0x1f
    30fc:	00dd7cb3          	and	x25,x26,x13
    3100:	06700893          	addi	x17,x0,103
    3104:	02012623          	sw	x0,44(x2)
    3108:	02012423          	sw	x0,40(x2)
    310c:	961ff06f          	jal	x0,2a6c <_vfprintf_r+0x1e54>
    3110:	00012a23          	sw	x0,20(x2)
    3114:	800007b7          	lui	x15,0x80000
    3118:	01b7cdb3          	xor	x27,x15,x27
    311c:	02d00793          	addi	x15,x0,45
    3120:	06f12023          	sw	x15,96(x2)
    3124:	a7dff06f          	jal	x0,2ba0 <_vfprintf_r+0x1f88>
    3128:	0e410613          	addi	x12,x2,228
    312c:	00048593          	addi	x11,x9,0
    3130:	00098513          	addi	x10,x19,0
    3134:	575090ef          	jal	x1,cea8 <__sprint_r>
    3138:	00050463          	beq	x10,x0,3140 <_vfprintf_r+0x2528>
    313c:	981fe06f          	jal	x0,1abc <_vfprintf_r+0xea4>
    3140:	000bc683          	lbu	x13,0(x23)
    3144:	0ec12703          	lw	x14,236(x2)
    3148:	000b0613          	addi	x12,x22,0
    314c:	00dc0c33          	add	x24,x24,x13
    3150:	d14ff06f          	jal	x0,2664 <_vfprintf_r+0x1a4c>
    3154:	00900513          	addi	x10,x0,9
    3158:	91956e63          	bltu	x10,x25,2274 <_vfprintf_r+0x165c>
    315c:	998ff06f          	jal	x0,22f4 <_vfprintf_r+0x16dc>
    3160:	07800713          	addi	x14,x0,120
    3164:	9f9ff06f          	jal	x0,2b5c <_vfprintf_r+0x1f44>
    3168:	02d00713          	addi	x14,x0,45
    316c:	0ce103a3          	sb	x14,199(x2)
    3170:	ab4ff06f          	jal	x0,2424 <_vfprintf_r+0x180c>
    3174:	00812583          	lw	x11,8(x2)
    3178:	0e410613          	addi	x12,x2,228
    317c:	00098513          	addi	x10,x19,0
    3180:	529090ef          	jal	x1,cea8 <__sprint_r>
    3184:	00050463          	beq	x10,x0,318c <_vfprintf_r+0x2574>
    3188:	935fe06f          	jal	x0,1abc <_vfprintf_r+0xea4>
    318c:	0cc12603          	lw	x12,204(x2)
    3190:	0ec12703          	lw	x14,236(x2)
    3194:	000b0413          	addi	x8,x22,0
    3198:	bddfe06f          	jal	x0,1d74 <_vfprintf_r+0x115c>
    319c:	0c714703          	lbu	x14,199(x2)
    31a0:	01512c23          	sw	x21,24(x2)
    31a4:	02012623          	sw	x0,44(x2)
    31a8:	02012423          	sw	x0,40(x2)
    31ac:	02012023          	sw	x0,32(x2)
    31b0:	00090c93          	addi	x25,x18,0
    31b4:	00090d13          	addi	x26,x18,0
    31b8:	00000913          	addi	x18,x0,0
    31bc:	00070463          	beq	x14,x0,31c4 <_vfprintf_r+0x25ac>
    31c0:	f35fd06f          	jal	x0,10f4 <_vfprintf_r+0x4dc>
    31c4:	c85fd06f          	jal	x0,e48 <_vfprintf_r+0x230>
    31c8:	000142b7          	lui	x5,0x14
    31cc:	53828c13          	addi	x24,x5,1336 # 14538 <no_exception_handler_msg+0xe6>
    31d0:	a64ff06f          	jal	x0,2434 <_vfprintf_r+0x181c>
    31d4:	00812583          	lw	x11,8(x2)
    31d8:	0e410613          	addi	x12,x2,228
    31dc:	00098513          	addi	x10,x19,0
    31e0:	4c9090ef          	jal	x1,cea8 <__sprint_r>
    31e4:	00050463          	beq	x10,x0,31ec <_vfprintf_r+0x25d4>
    31e8:	8d5fe06f          	jal	x0,1abc <_vfprintf_r+0xea4>
    31ec:	0cc12603          	lw	x12,204(x2)
    31f0:	02412783          	lw	x15,36(x2)
    31f4:	0ec12703          	lw	x14,236(x2)
    31f8:	000b0413          	addi	x8,x22,0
    31fc:	40c78633          	sub	x12,x15,x12
    3200:	bbdfe06f          	jal	x0,1dbc <_vfprintf_r+0x11a4>
    3204:	000b8d93          	addi	x27,x23,0
    3208:	ba0fe06f          	jal	x0,15a8 <_vfprintf_r+0x990>
    320c:	02412783          	lw	x15,36(x2)
    3210:	03412703          	lw	x14,52(x2)
    3214:	06700893          	addi	x17,x0,103
    3218:	00e78d33          	add	x26,x15,x14
    321c:	02012783          	lw	x15,32(x2)
    3220:	2af05863          	bge	x0,x15,34d0 <_vfprintf_r+0x28b8>
    3224:	02c12783          	lw	x15,44(x2)
    3228:	4007f793          	andi	x15,x15,1024
    322c:	22079263          	bne	x15,x0,3450 <_vfprintf_r+0x2838>
    3230:	fffd4693          	xori	x13,x26,-1
    3234:	41f6d693          	srai	x13,x13,0x1f
    3238:	05c12b83          	lw	x23,92(x2)
    323c:	00dd7cb3          	and	x25,x26,x13
    3240:	ec5ff06f          	jal	x0,3104 <_vfprintf_r+0x24ec>
    3244:	00014837          	lui	x16,0x14
    3248:	ff000593          	addi	x11,x0,-16
    324c:	40a00933          	sub	x18,x0,x10
    3250:	77880a93          	addi	x21,x16,1912 # 14778 <zeroes.0>
    3254:	01000d13          	addi	x26,x0,16
    3258:	00700d93          	addi	x27,x0,7
    325c:	00b54863          	blt	x10,x11,326c <_vfprintf_r+0x2654>
    3260:	0840006f          	jal	x0,32e4 <_vfprintf_r+0x26cc>
    3264:	ff090913          	addi	x18,x18,-16
    3268:	072d5e63          	bge	x26,x18,32e4 <_vfprintf_r+0x26cc>
    326c:	01070713          	addi	x14,x14,16
    3270:	00160613          	addi	x12,x12,1
    3274:	01542023          	sw	x21,0(x8)
    3278:	01a42223          	sw	x26,4(x8)
    327c:	0ee12623          	sw	x14,236(x2)
    3280:	0ec12423          	sw	x12,232(x2)
    3284:	00840413          	addi	x8,x8,8
    3288:	fccddee3          	bge	x27,x12,3264 <_vfprintf_r+0x264c>
    328c:	00812583          	lw	x11,8(x2)
    3290:	0e410613          	addi	x12,x2,228
    3294:	00098513          	addi	x10,x19,0
    3298:	411090ef          	jal	x1,cea8 <__sprint_r>
    329c:	00050463          	beq	x10,x0,32a4 <_vfprintf_r+0x268c>
    32a0:	81dfe06f          	jal	x0,1abc <_vfprintf_r+0xea4>
    32a4:	0ec12703          	lw	x14,236(x2)
    32a8:	0e812603          	lw	x12,232(x2)
    32ac:	000b0413          	addi	x8,x22,0
    32b0:	fb5ff06f          	jal	x0,3264 <_vfprintf_r+0x264c>
    32b4:	fff00793          	addi	x15,x0,-1
    32b8:	00f12823          	sw	x15,16(x2)
    32bc:	cd5fd06f          	jal	x0,f90 <_vfprintf_r+0x378>
    32c0:	02c12783          	lw	x15,44(x2)
    32c4:	02012703          	lw	x14,32(x2)
    32c8:	0017f793          	andi	x15,x15,1
    32cc:	0127e7b3          	or	x15,x15,x18
    32d0:	24e05263          	bge	x0,x14,3514 <_vfprintf_r+0x28fc>
    32d4:	20079c63          	bne	x15,x0,34ec <_vfprintf_r+0x28d4>
    32d8:	02012d03          	lw	x26,32(x2)
    32dc:	06600893          	addi	x17,x0,102
    32e0:	f45ff06f          	jal	x0,3224 <_vfprintf_r+0x260c>
    32e4:	01270733          	add	x14,x14,x18
    32e8:	00160613          	addi	x12,x12,1
    32ec:	01542023          	sw	x21,0(x8)
    32f0:	01242223          	sw	x18,4(x8)
    32f4:	0ee12623          	sw	x14,236(x2)
    32f8:	0ec12423          	sw	x12,232(x2)
    32fc:	00700593          	addi	x11,x0,7
    3300:	00c5c463          	blt	x11,x12,3308 <_vfprintf_r+0x26f0>
    3304:	888ff06f          	jal	x0,238c <_vfprintf_r+0x1774>
    3308:	00812583          	lw	x11,8(x2)
    330c:	0e410613          	addi	x12,x2,228
    3310:	00098513          	addi	x10,x19,0
    3314:	395090ef          	jal	x1,cea8 <__sprint_r>
    3318:	00050463          	beq	x10,x0,3320 <_vfprintf_r+0x2708>
    331c:	fa0fe06f          	jal	x0,1abc <_vfprintf_r+0xea4>
    3320:	0ec12703          	lw	x14,236(x2)
    3324:	0e812603          	lw	x12,232(x2)
    3328:	000b0413          	addi	x8,x22,0
    332c:	99cff06f          	jal	x0,24c8 <_vfprintf_r+0x18b0>
    3330:	00dc0cb3          	add	x25,x24,x13
    3334:	04700a93          	addi	x21,x0,71
    3338:	0a010d13          	addi	x26,x2,160
    333c:	dbcff06f          	jal	x0,28f8 <_vfprintf_r+0x1ce0>
    3340:	0d610713          	addi	x14,x2,214
    3344:	00061863          	bne	x12,x0,3354 <_vfprintf_r+0x273c>
    3348:	03000713          	addi	x14,x0,48
    334c:	0ce10b23          	sb	x14,214(x2)
    3350:	0d710713          	addi	x14,x2,215
    3354:	1b010693          	addi	x13,x2,432
    3358:	03078793          	addi	x15,x15,48 # 80000030 <__heap_end+0x7fc00030>
    335c:	40d706b3          	sub	x13,x14,x13
    3360:	00f70023          	sb	x15,0(x14)
    3364:	0dd68793          	addi	x15,x13,221
    3368:	04f12223          	sw	x15,68(x2)
    336c:	ec0ff06f          	jal	x0,2a2c <_vfprintf_r+0x1e14>
    3370:	05812783          	lw	x15,88(x2)
    3374:	00f3c603          	lbu	x12,15(x7)
    3378:	000a8713          	addi	x14,x21,0
    337c:	0cf12e23          	sw	x15,220(x2)
    3380:	fffac683          	lbu	x13,-1(x21)
    3384:	02c69063          	bne	x13,x12,33a4 <_vfprintf_r+0x278c>
    3388:	03000593          	addi	x11,x0,48
    338c:	feb70fa3          	sb	x11,-1(x14)
    3390:	0dc12703          	lw	x14,220(x2)
    3394:	fff70793          	addi	x15,x14,-1
    3398:	0cf12e23          	sw	x15,220(x2)
    339c:	fff74683          	lbu	x13,-1(x14)
    33a0:	fed606e3          	beq	x12,x13,338c <_vfprintf_r+0x2774>
    33a4:	00168613          	addi	x12,x13,1
    33a8:	03900593          	addi	x11,x0,57
    33ac:	0ff67613          	andi	x12,x12,255
    33b0:	00b68863          	beq	x13,x11,33c0 <_vfprintf_r+0x27a8>
    33b4:	fec70fa3          	sb	x12,-1(x14)
    33b8:	000a8b93          	addi	x23,x21,0
    33bc:	b11ff06f          	jal	x0,2ecc <_vfprintf_r+0x22b4>
    33c0:	00a3c603          	lbu	x12,10(x7)
    33c4:	fec70fa3          	sb	x12,-1(x14)
    33c8:	ff1ff06f          	jal	x0,33b8 <_vfprintf_r+0x27a0>
    33cc:	00190593          	addi	x11,x18,1
    33d0:	00098513          	addi	x10,x19,0
    33d4:	01112a23          	sw	x17,20(x2)
    33d8:	7e0040ef          	jal	x1,7bb8 <_malloc_r>
    33dc:	01412883          	lw	x17,20(x2)
    33e0:	00050c13          	addi	x24,x10,0
    33e4:	18050863          	beq	x10,x0,3574 <_vfprintf_r+0x295c>
    33e8:	00a12a23          	sw	x10,20(x2)
    33ec:	f94ff06f          	jal	x0,2b80 <_vfprintf_r+0x1f68>
    33f0:	02c12783          	lw	x15,44(x2)
    33f4:	0017f793          	andi	x15,x15,1
    33f8:	e4078863          	beq	x15,x0,2a48 <_vfprintf_r+0x1e30>
    33fc:	e44ff06f          	jal	x0,2a40 <_vfprintf_r+0x1e28>
    3400:	00090463          	beq	x18,x0,3408 <_vfprintf_r+0x27f0>
    3404:	e49fd06f          	jal	x0,124c <_vfprintf_r+0x634>
    3408:	00100913          	addi	x18,x0,1
    340c:	e41fd06f          	jal	x0,124c <_vfprintf_r+0x634>
    3410:	00600913          	addi	x18,x0,6
    3414:	e39fd06f          	jal	x0,124c <_vfprintf_r+0x634>
    3418:	00090a93          	addi	x21,x18,0
    341c:	00048f13          	addi	x30,x9,0
    3420:	000a0e93          	addi	x29,x20,0
    3424:	06812883          	lw	x17,104(x2)
    3428:	07412403          	lw	x8,116(x2)
    342c:	07012903          	lw	x18,112(x2)
    3430:	05012383          	lw	x7,80(x2)
    3434:	07812983          	lw	x19,120(x2)
    3438:	07c12c03          	lw	x24,124(x2)
    343c:	06412483          	lw	x9,100(x2)
    3440:	06c12a03          	lw	x20,108(x2)
    3444:	000c8713          	addi	x14,x25,0
    3448:	9edff06f          	jal	x0,2e34 <_vfprintf_r+0x221c>
    344c:	06700893          	addi	x17,x0,103
    3450:	04012603          	lw	x12,64(x2)
    3454:	0ff00713          	addi	x14,x0,255
    3458:	00064783          	lbu	x15,0(x12)
    345c:	12e78663          	beq	x15,x14,3588 <_vfprintf_r+0x2970>
    3460:	02012683          	lw	x13,32(x2)
    3464:	00000513          	addi	x10,x0,0
    3468:	00000593          	addi	x11,x0,0
    346c:	00d7de63          	bge	x15,x13,3488 <_vfprintf_r+0x2870>
    3470:	40f686b3          	sub	x13,x13,x15
    3474:	00164783          	lbu	x15,1(x12)
    3478:	04078663          	beq	x15,x0,34c4 <_vfprintf_r+0x28ac>
    347c:	00158593          	addi	x11,x11,1
    3480:	00160613          	addi	x12,x12,1
    3484:	fee794e3          	bne	x15,x14,346c <_vfprintf_r+0x2854>
    3488:	04c12023          	sw	x12,64(x2)
    348c:	02d12023          	sw	x13,32(x2)
    3490:	02b12423          	sw	x11,40(x2)
    3494:	02a12623          	sw	x10,44(x2)
    3498:	02c12783          	lw	x15,44(x2)
    349c:	02812703          	lw	x14,40(x2)
    34a0:	05c12b83          	lw	x23,92(x2)
    34a4:	00e78733          	add	x14,x15,x14
    34a8:	04c12783          	lw	x15,76(x2)
    34ac:	02f70733          	mul	x14,x14,x15
    34b0:	01a70d33          	add	x26,x14,x26
    34b4:	fffd4693          	xori	x13,x26,-1
    34b8:	41f6d693          	srai	x13,x13,0x1f
    34bc:	00dd7cb3          	and	x25,x26,x13
    34c0:	dacff06f          	jal	x0,2a6c <_vfprintf_r+0x1e54>
    34c4:	00064783          	lbu	x15,0(x12)
    34c8:	00150513          	addi	x10,x10,1
    34cc:	fb9ff06f          	jal	x0,3484 <_vfprintf_r+0x286c>
    34d0:	40fd0e33          	sub	x28,x26,x15
    34d4:	001e0d13          	addi	x26,x28,1
    34d8:	fffd4693          	xori	x13,x26,-1
    34dc:	41f6d693          	srai	x13,x13,0x1f
    34e0:	05c12b83          	lw	x23,92(x2)
    34e4:	00dd7cb3          	and	x25,x26,x13
    34e8:	c1dff06f          	jal	x0,3104 <_vfprintf_r+0x24ec>
    34ec:	03412783          	lw	x15,52(x2)
    34f0:	06600893          	addi	x17,x0,102
    34f4:	00f70e33          	add	x28,x14,x15
    34f8:	012e0d33          	add	x26,x28,x18
    34fc:	d29ff06f          	jal	x0,3224 <_vfprintf_r+0x260c>
    3500:	07000713          	addi	x14,x0,112
    3504:	c8cff06f          	jal	x0,2990 <_vfprintf_r+0x1d78>
    3508:	00200793          	addi	x15,x0,2
    350c:	04f12223          	sw	x15,68(x2)
    3510:	d1cff06f          	jal	x0,2a2c <_vfprintf_r+0x1e14>
    3514:	00079c63          	bne	x15,x0,352c <_vfprintf_r+0x2914>
    3518:	05c12b83          	lw	x23,92(x2)
    351c:	00100c93          	addi	x25,x0,1
    3520:	06600893          	addi	x17,x0,102
    3524:	00100d13          	addi	x26,x0,1
    3528:	bddff06f          	jal	x0,3104 <_vfprintf_r+0x24ec>
    352c:	03412783          	lw	x15,52(x2)
    3530:	05c12b83          	lw	x23,92(x2)
    3534:	06600893          	addi	x17,x0,102
    3538:	00178e13          	addi	x28,x15,1
    353c:	012e0d33          	add	x26,x28,x18
    3540:	fffd4693          	xori	x13,x26,-1
    3544:	41f6d693          	srai	x13,x13,0x1f
    3548:	00dd7cb3          	and	x25,x26,x13
    354c:	bb9ff06f          	jal	x0,3104 <_vfprintf_r+0x24ec>
    3550:	01812783          	lw	x15,24(x2)
    3554:	0007a903          	lw	x18,0(x15)
    3558:	00478793          	addi	x15,x15,4
    355c:	00095463          	bge	x18,x0,3564 <_vfprintf_r+0x294c>
    3560:	fff00913          	addi	x18,x0,-1
    3564:	0014c883          	lbu	x17,1(x9)
    3568:	00f12c23          	sw	x15,24(x2)
    356c:	00070493          	addi	x9,x14,0
    3570:	859fd06f          	jal	x0,dc8 <_vfprintf_r+0x1b0>
    3574:	00812703          	lw	x14,8(x2)
    3578:	00c75783          	lhu	x15,12(x14)
    357c:	0407e793          	ori	x15,x15,64
    3580:	00f71623          	sh	x15,12(x14)
    3584:	9f9fd06f          	jal	x0,f7c <_vfprintf_r+0x364>
    3588:	02012623          	sw	x0,44(x2)
    358c:	02012423          	sw	x0,40(x2)
    3590:	f09ff06f          	jal	x0,3498 <_vfprintf_r+0x2880>

00003594 <vfprintf>:
    3594:	00050793          	addi	x15,x10,0
    3598:	1c01a503          	lw	x10,448(x3) # 15da0 <_impure_ptr>
    359c:	00060693          	addi	x13,x12,0
    35a0:	00058613          	addi	x12,x11,0
    35a4:	00078593          	addi	x11,x15,0
    35a8:	e70fd06f          	jal	x0,c18 <_vfprintf_r>

000035ac <__sbprintf>:
    35ac:	00c59783          	lh	x15,12(x11)
    35b0:	00e5d703          	lhu	x14,14(x11)
    35b4:	0645a303          	lw	x6,100(x11)
    35b8:	ffd7f793          	andi	x15,x15,-3
    35bc:	01079793          	slli	x15,x15,0x10
    35c0:	01c5a883          	lw	x17,28(x11)
    35c4:	0245a803          	lw	x16,36(x11)
    35c8:	01071713          	slli	x14,x14,0x10
    35cc:	0107d793          	srli	x15,x15,0x10
    35d0:	b8010113          	addi	x2,x2,-1152
    35d4:	00e7e7b3          	or	x15,x15,x14
    35d8:	46812c23          	sw	x8,1144(x2)
    35dc:	40000713          	addi	x14,x0,1024
    35e0:	00f12a23          	sw	x15,20(x2)
    35e4:	00058413          	addi	x8,x11,0
    35e8:	07010793          	addi	x15,x2,112
    35ec:	00810593          	addi	x11,x2,8
    35f0:	46912a23          	sw	x9,1140(x2)
    35f4:	47212823          	sw	x18,1136(x2)
    35f8:	46112e23          	sw	x1,1148(x2)
    35fc:	00050913          	addi	x18,x10,0
    3600:	06612623          	sw	x6,108(x2)
    3604:	03112223          	sw	x17,36(x2)
    3608:	03012623          	sw	x16,44(x2)
    360c:	00f12423          	sw	x15,8(x2)
    3610:	00f12c23          	sw	x15,24(x2)
    3614:	00e12823          	sw	x14,16(x2)
    3618:	00e12e23          	sw	x14,28(x2)
    361c:	02012023          	sw	x0,32(x2)
    3620:	df8fd0ef          	jal	x1,c18 <_vfprintf_r>
    3624:	00050493          	addi	x9,x10,0
    3628:	02055c63          	bge	x10,x0,3660 <__sbprintf+0xb4>
    362c:	01415783          	lhu	x15,20(x2)
    3630:	0407f793          	andi	x15,x15,64
    3634:	00078863          	beq	x15,x0,3644 <__sbprintf+0x98>
    3638:	00c45783          	lhu	x15,12(x8)
    363c:	0407e793          	ori	x15,x15,64
    3640:	00f41623          	sh	x15,12(x8)
    3644:	47c12083          	lw	x1,1148(x2)
    3648:	47812403          	lw	x8,1144(x2)
    364c:	47012903          	lw	x18,1136(x2)
    3650:	00048513          	addi	x10,x9,0
    3654:	47412483          	lw	x9,1140(x2)
    3658:	48010113          	addi	x2,x2,1152
    365c:	00008067          	jalr	x0,0(x1)
    3660:	00810593          	addi	x11,x2,8
    3664:	00090513          	addi	x10,x18,0
    3668:	6dc000ef          	jal	x1,3d44 <_fflush_r>
    366c:	fc0500e3          	beq	x10,x0,362c <__sbprintf+0x80>
    3670:	fff00493          	addi	x9,x0,-1
    3674:	fb9ff06f          	jal	x0,362c <__sbprintf+0x80>

00003678 <__swbuf_r>:
    3678:	fe010113          	addi	x2,x2,-32
    367c:	00812c23          	sw	x8,24(x2)
    3680:	00912a23          	sw	x9,20(x2)
    3684:	01212823          	sw	x18,16(x2)
    3688:	00112e23          	sw	x1,28(x2)
    368c:	01312623          	sw	x19,12(x2)
    3690:	00050913          	addi	x18,x10,0
    3694:	00058493          	addi	x9,x11,0
    3698:	00060413          	addi	x8,x12,0
    369c:	00050663          	beq	x10,x0,36a8 <__swbuf_r+0x30>
    36a0:	03852783          	lw	x15,56(x10)
    36a4:	14078063          	beq	x15,x0,37e4 <__swbuf_r+0x16c>
    36a8:	01842783          	lw	x15,24(x8)
    36ac:	00c41703          	lh	x14,12(x8)
    36b0:	00f42423          	sw	x15,8(x8)
    36b4:	00877793          	andi	x15,x14,8
    36b8:	08078263          	beq	x15,x0,373c <__swbuf_r+0xc4>
    36bc:	01042783          	lw	x15,16(x8)
    36c0:	06078e63          	beq	x15,x0,373c <__swbuf_r+0xc4>
    36c4:	01271693          	slli	x13,x14,0x12
    36c8:	0ff4f993          	andi	x19,x9,255
    36cc:	0ff4f493          	andi	x9,x9,255
    36d0:	0806da63          	bge	x13,x0,3764 <__swbuf_r+0xec>
    36d4:	00042703          	lw	x14,0(x8)
    36d8:	01442683          	lw	x13,20(x8)
    36dc:	40f707b3          	sub	x15,x14,x15
    36e0:	0ad7da63          	bge	x15,x13,3794 <__swbuf_r+0x11c>
    36e4:	00842683          	lw	x13,8(x8)
    36e8:	00170613          	addi	x12,x14,1
    36ec:	00c42023          	sw	x12,0(x8)
    36f0:	fff68693          	addi	x13,x13,-1
    36f4:	00d42423          	sw	x13,8(x8)
    36f8:	01370023          	sb	x19,0(x14)
    36fc:	01442703          	lw	x14,20(x8)
    3700:	00178793          	addi	x15,x15,1
    3704:	0cf70463          	beq	x14,x15,37cc <__swbuf_r+0x154>
    3708:	00c45783          	lhu	x15,12(x8)
    370c:	0017f793          	andi	x15,x15,1
    3710:	00078663          	beq	x15,x0,371c <__swbuf_r+0xa4>
    3714:	00a00793          	addi	x15,x0,10
    3718:	0af48a63          	beq	x9,x15,37cc <__swbuf_r+0x154>
    371c:	01c12083          	lw	x1,28(x2)
    3720:	01812403          	lw	x8,24(x2)
    3724:	01012903          	lw	x18,16(x2)
    3728:	00c12983          	lw	x19,12(x2)
    372c:	00048513          	addi	x10,x9,0
    3730:	01412483          	lw	x9,20(x2)
    3734:	02010113          	addi	x2,x2,32
    3738:	00008067          	jalr	x0,0(x1)
    373c:	00040593          	addi	x11,x8,0
    3740:	00090513          	addi	x10,x18,0
    3744:	0bc000ef          	jal	x1,3800 <__swsetup_r>
    3748:	08051a63          	bne	x10,x0,37dc <__swbuf_r+0x164>
    374c:	00c41703          	lh	x14,12(x8)
    3750:	0ff4f993          	andi	x19,x9,255
    3754:	01042783          	lw	x15,16(x8)
    3758:	01271693          	slli	x13,x14,0x12
    375c:	0ff4f493          	andi	x9,x9,255
    3760:	f606cae3          	blt	x13,x0,36d4 <__swbuf_r+0x5c>
    3764:	06442683          	lw	x13,100(x8)
    3768:	00002637          	lui	x12,0x2
    376c:	00c76733          	or	x14,x14,x12
    3770:	ffffe637          	lui	x12,0xffffe
    3774:	fff60613          	addi	x12,x12,-1 # ffffdfff <__heap_end+0xffbfdfff>
    3778:	00c6f6b3          	and	x13,x13,x12
    377c:	00e41623          	sh	x14,12(x8)
    3780:	00042703          	lw	x14,0(x8)
    3784:	06d42223          	sw	x13,100(x8)
    3788:	01442683          	lw	x13,20(x8)
    378c:	40f707b3          	sub	x15,x14,x15
    3790:	f4d7cae3          	blt	x15,x13,36e4 <__swbuf_r+0x6c>
    3794:	00040593          	addi	x11,x8,0
    3798:	00090513          	addi	x10,x18,0
    379c:	5a8000ef          	jal	x1,3d44 <_fflush_r>
    37a0:	02051e63          	bne	x10,x0,37dc <__swbuf_r+0x164>
    37a4:	00042703          	lw	x14,0(x8)
    37a8:	00842683          	lw	x13,8(x8)
    37ac:	00100793          	addi	x15,x0,1
    37b0:	00170613          	addi	x12,x14,1
    37b4:	fff68693          	addi	x13,x13,-1
    37b8:	00c42023          	sw	x12,0(x8)
    37bc:	00d42423          	sw	x13,8(x8)
    37c0:	01370023          	sb	x19,0(x14)
    37c4:	01442703          	lw	x14,20(x8)
    37c8:	f4f710e3          	bne	x14,x15,3708 <__swbuf_r+0x90>
    37cc:	00040593          	addi	x11,x8,0
    37d0:	00090513          	addi	x10,x18,0
    37d4:	570000ef          	jal	x1,3d44 <_fflush_r>
    37d8:	f40502e3          	beq	x10,x0,371c <__swbuf_r+0xa4>
    37dc:	fff00493          	addi	x9,x0,-1
    37e0:	f3dff06f          	jal	x0,371c <__swbuf_r+0xa4>
    37e4:	185000ef          	jal	x1,4168 <__sinit>
    37e8:	ec1ff06f          	jal	x0,36a8 <__swbuf_r+0x30>

000037ec <__swbuf>:
    37ec:	00050793          	addi	x15,x10,0
    37f0:	1c01a503          	lw	x10,448(x3) # 15da0 <_impure_ptr>
    37f4:	00058613          	addi	x12,x11,0
    37f8:	00078593          	addi	x11,x15,0
    37fc:	e7dff06f          	jal	x0,3678 <__swbuf_r>

00003800 <__swsetup_r>:
    3800:	1c01a783          	lw	x15,448(x3) # 15da0 <_impure_ptr>
    3804:	ff010113          	addi	x2,x2,-16
    3808:	00812423          	sw	x8,8(x2)
    380c:	00912223          	sw	x9,4(x2)
    3810:	00112623          	sw	x1,12(x2)
    3814:	00050493          	addi	x9,x10,0
    3818:	00058413          	addi	x8,x11,0
    381c:	00078663          	beq	x15,x0,3828 <__swsetup_r+0x28>
    3820:	0387a703          	lw	x14,56(x15)
    3824:	08070063          	beq	x14,x0,38a4 <__swsetup_r+0xa4>
    3828:	00c41783          	lh	x15,12(x8)
    382c:	0087f713          	andi	x14,x15,8
    3830:	08070463          	beq	x14,x0,38b8 <__swsetup_r+0xb8>
    3834:	01042703          	lw	x14,16(x8)
    3838:	0a070063          	beq	x14,x0,38d8 <__swsetup_r+0xd8>
    383c:	0017f693          	andi	x13,x15,1
    3840:	02068863          	beq	x13,x0,3870 <__swsetup_r+0x70>
    3844:	01442683          	lw	x13,20(x8)
    3848:	00042423          	sw	x0,8(x8)
    384c:	00000513          	addi	x10,x0,0
    3850:	40d006b3          	sub	x13,x0,x13
    3854:	00d42c23          	sw	x13,24(x8)
    3858:	02070a63          	beq	x14,x0,388c <__swsetup_r+0x8c>
    385c:	00c12083          	lw	x1,12(x2)
    3860:	00812403          	lw	x8,8(x2)
    3864:	00412483          	lw	x9,4(x2)
    3868:	01010113          	addi	x2,x2,16
    386c:	00008067          	jalr	x0,0(x1)
    3870:	0027f693          	andi	x13,x15,2
    3874:	00000613          	addi	x12,x0,0
    3878:	00069463          	bne	x13,x0,3880 <__swsetup_r+0x80>
    387c:	01442603          	lw	x12,20(x8)
    3880:	00c42423          	sw	x12,8(x8)
    3884:	00000513          	addi	x10,x0,0
    3888:	fc071ae3          	bne	x14,x0,385c <__swsetup_r+0x5c>
    388c:	0807f713          	andi	x14,x15,128
    3890:	fc0706e3          	beq	x14,x0,385c <__swsetup_r+0x5c>
    3894:	0407e793          	ori	x15,x15,64
    3898:	00f41623          	sh	x15,12(x8)
    389c:	fff00513          	addi	x10,x0,-1
    38a0:	fbdff06f          	jal	x0,385c <__swsetup_r+0x5c>
    38a4:	00078513          	addi	x10,x15,0
    38a8:	0c1000ef          	jal	x1,4168 <__sinit>
    38ac:	00c41783          	lh	x15,12(x8)
    38b0:	0087f713          	andi	x14,x15,8
    38b4:	f80710e3          	bne	x14,x0,3834 <__swsetup_r+0x34>
    38b8:	0107f713          	andi	x14,x15,16
    38bc:	06070a63          	beq	x14,x0,3930 <__swsetup_r+0x130>
    38c0:	0047f713          	andi	x14,x15,4
    38c4:	02071c63          	bne	x14,x0,38fc <__swsetup_r+0xfc>
    38c8:	01042703          	lw	x14,16(x8)
    38cc:	0087e793          	ori	x15,x15,8
    38d0:	00f41623          	sh	x15,12(x8)
    38d4:	f60714e3          	bne	x14,x0,383c <__swsetup_r+0x3c>
    38d8:	2807f693          	andi	x13,x15,640
    38dc:	20000613          	addi	x12,x0,512
    38e0:	f4c68ee3          	beq	x13,x12,383c <__swsetup_r+0x3c>
    38e4:	00040593          	addi	x11,x8,0
    38e8:	00048513          	addi	x10,x9,0
    38ec:	064040ef          	jal	x1,7950 <__smakebuf_r>
    38f0:	00c41783          	lh	x15,12(x8)
    38f4:	01042703          	lw	x14,16(x8)
    38f8:	f45ff06f          	jal	x0,383c <__swsetup_r+0x3c>
    38fc:	03042583          	lw	x11,48(x8)
    3900:	00058e63          	beq	x11,x0,391c <__swsetup_r+0x11c>
    3904:	04040713          	addi	x14,x8,64
    3908:	00e58863          	beq	x11,x14,3918 <__swsetup_r+0x118>
    390c:	00048513          	addi	x10,x9,0
    3910:	1c9000ef          	jal	x1,42d8 <_free_r>
    3914:	00c41783          	lh	x15,12(x8)
    3918:	02042823          	sw	x0,48(x8)
    391c:	01042703          	lw	x14,16(x8)
    3920:	fdb7f793          	andi	x15,x15,-37
    3924:	00042223          	sw	x0,4(x8)
    3928:	00e42023          	sw	x14,0(x8)
    392c:	fa1ff06f          	jal	x0,38cc <__swsetup_r+0xcc>
    3930:	00900713          	addi	x14,x0,9
    3934:	00e4a023          	sw	x14,0(x9)
    3938:	0407e793          	ori	x15,x15,64
    393c:	f5dff06f          	jal	x0,3898 <__swsetup_r+0x98>

00003940 <__register_exitproc>:
    3940:	1b81a703          	lw	x14,440(x3) # 15d98 <_global_impure_ptr>
    3944:	14872783          	lw	x15,328(x14)
    3948:	04078c63          	beq	x15,x0,39a0 <__register_exitproc+0x60>
    394c:	0047a703          	lw	x14,4(x15)
    3950:	01f00813          	addi	x16,x0,31
    3954:	06e84e63          	blt	x16,x14,39d0 <__register_exitproc+0x90>
    3958:	00271813          	slli	x16,x14,0x2
    395c:	02050663          	beq	x10,x0,3988 <__register_exitproc+0x48>
    3960:	01078333          	add	x6,x15,x16
    3964:	08c32423          	sw	x12,136(x6)
    3968:	1887a883          	lw	x17,392(x15)
    396c:	00100613          	addi	x12,x0,1
    3970:	00e61633          	sll	x12,x12,x14
    3974:	00c8e8b3          	or	x17,x17,x12
    3978:	1917a423          	sw	x17,392(x15)
    397c:	10d32423          	sw	x13,264(x6)
    3980:	00200693          	addi	x13,x0,2
    3984:	02d50463          	beq	x10,x13,39ac <__register_exitproc+0x6c>
    3988:	00170713          	addi	x14,x14,1
    398c:	00e7a223          	sw	x14,4(x15)
    3990:	010787b3          	add	x15,x15,x16
    3994:	00b7a423          	sw	x11,8(x15)
    3998:	00000513          	addi	x10,x0,0
    399c:	00008067          	jalr	x0,0(x1)
    39a0:	14c70793          	addi	x15,x14,332
    39a4:	14f72423          	sw	x15,328(x14)
    39a8:	fa5ff06f          	jal	x0,394c <__register_exitproc+0xc>
    39ac:	18c7a683          	lw	x13,396(x15)
    39b0:	00170713          	addi	x14,x14,1
    39b4:	00e7a223          	sw	x14,4(x15)
    39b8:	00c6e6b3          	or	x13,x13,x12
    39bc:	18d7a623          	sw	x13,396(x15)
    39c0:	010787b3          	add	x15,x15,x16
    39c4:	00b7a423          	sw	x11,8(x15)
    39c8:	00000513          	addi	x10,x0,0
    39cc:	00008067          	jalr	x0,0(x1)
    39d0:	fff00513          	addi	x10,x0,-1
    39d4:	00008067          	jalr	x0,0(x1)

000039d8 <__call_exitprocs>:
    39d8:	fd010113          	addi	x2,x2,-48
    39dc:	01412c23          	sw	x20,24(x2)
    39e0:	1b81aa03          	lw	x20,440(x3) # 15d98 <_global_impure_ptr>
    39e4:	03212023          	sw	x18,32(x2)
    39e8:	02112623          	sw	x1,44(x2)
    39ec:	148a2903          	lw	x18,328(x20)
    39f0:	02812423          	sw	x8,40(x2)
    39f4:	02912223          	sw	x9,36(x2)
    39f8:	01312e23          	sw	x19,28(x2)
    39fc:	01512a23          	sw	x21,20(x2)
    3a00:	01612823          	sw	x22,16(x2)
    3a04:	01712623          	sw	x23,12(x2)
    3a08:	01812423          	sw	x24,8(x2)
    3a0c:	04090063          	beq	x18,x0,3a4c <__call_exitprocs+0x74>
    3a10:	00050b13          	addi	x22,x10,0
    3a14:	00058b93          	addi	x23,x11,0
    3a18:	00100a93          	addi	x21,x0,1
    3a1c:	fff00993          	addi	x19,x0,-1
    3a20:	00492483          	lw	x9,4(x18)
    3a24:	fff48413          	addi	x8,x9,-1
    3a28:	02044263          	blt	x8,x0,3a4c <__call_exitprocs+0x74>
    3a2c:	00249493          	slli	x9,x9,0x2
    3a30:	009904b3          	add	x9,x18,x9
    3a34:	040b8463          	beq	x23,x0,3a7c <__call_exitprocs+0xa4>
    3a38:	1044a783          	lw	x15,260(x9)
    3a3c:	05778063          	beq	x15,x23,3a7c <__call_exitprocs+0xa4>
    3a40:	fff40413          	addi	x8,x8,-1
    3a44:	ffc48493          	addi	x9,x9,-4
    3a48:	ff3416e3          	bne	x8,x19,3a34 <__call_exitprocs+0x5c>
    3a4c:	02c12083          	lw	x1,44(x2)
    3a50:	02812403          	lw	x8,40(x2)
    3a54:	02412483          	lw	x9,36(x2)
    3a58:	02012903          	lw	x18,32(x2)
    3a5c:	01c12983          	lw	x19,28(x2)
    3a60:	01812a03          	lw	x20,24(x2)
    3a64:	01412a83          	lw	x21,20(x2)
    3a68:	01012b03          	lw	x22,16(x2)
    3a6c:	00c12b83          	lw	x23,12(x2)
    3a70:	00812c03          	lw	x24,8(x2)
    3a74:	03010113          	addi	x2,x2,48
    3a78:	00008067          	jalr	x0,0(x1)
    3a7c:	00492783          	lw	x15,4(x18)
    3a80:	0044a683          	lw	x13,4(x9)
    3a84:	fff78793          	addi	x15,x15,-1
    3a88:	04878e63          	beq	x15,x8,3ae4 <__call_exitprocs+0x10c>
    3a8c:	0004a223          	sw	x0,4(x9)
    3a90:	fa0688e3          	beq	x13,x0,3a40 <__call_exitprocs+0x68>
    3a94:	18892783          	lw	x15,392(x18)
    3a98:	008a9733          	sll	x14,x21,x8
    3a9c:	00492c03          	lw	x24,4(x18)
    3aa0:	00f777b3          	and	x15,x14,x15
    3aa4:	02079263          	bne	x15,x0,3ac8 <__call_exitprocs+0xf0>
    3aa8:	000680e7          	jalr	x1,0(x13)
    3aac:	00492703          	lw	x14,4(x18)
    3ab0:	148a2783          	lw	x15,328(x20)
    3ab4:	01871463          	bne	x14,x24,3abc <__call_exitprocs+0xe4>
    3ab8:	f92784e3          	beq	x15,x18,3a40 <__call_exitprocs+0x68>
    3abc:	f80788e3          	beq	x15,x0,3a4c <__call_exitprocs+0x74>
    3ac0:	00078913          	addi	x18,x15,0
    3ac4:	f5dff06f          	jal	x0,3a20 <__call_exitprocs+0x48>
    3ac8:	18c92783          	lw	x15,396(x18)
    3acc:	0844a583          	lw	x11,132(x9)
    3ad0:	00f77733          	and	x14,x14,x15
    3ad4:	00071c63          	bne	x14,x0,3aec <__call_exitprocs+0x114>
    3ad8:	000b0513          	addi	x10,x22,0
    3adc:	000680e7          	jalr	x1,0(x13)
    3ae0:	fcdff06f          	jal	x0,3aac <__call_exitprocs+0xd4>
    3ae4:	00892223          	sw	x8,4(x18)
    3ae8:	fa9ff06f          	jal	x0,3a90 <__call_exitprocs+0xb8>
    3aec:	00058513          	addi	x10,x11,0
    3af0:	000680e7          	jalr	x1,0(x13)
    3af4:	fb9ff06f          	jal	x0,3aac <__call_exitprocs+0xd4>

00003af8 <__sflush_r>:
    3af8:	00c59783          	lh	x15,12(x11)
    3afc:	fe010113          	addi	x2,x2,-32
    3b00:	00812c23          	sw	x8,24(x2)
    3b04:	01312623          	sw	x19,12(x2)
    3b08:	00112e23          	sw	x1,28(x2)
    3b0c:	00912a23          	sw	x9,20(x2)
    3b10:	01212823          	sw	x18,16(x2)
    3b14:	0087f713          	andi	x14,x15,8
    3b18:	00058413          	addi	x8,x11,0
    3b1c:	00050993          	addi	x19,x10,0
    3b20:	12071263          	bne	x14,x0,3c44 <__sflush_r+0x14c>
    3b24:	00001737          	lui	x14,0x1
    3b28:	80070713          	addi	x14,x14,-2048 # 800 <_putc_r+0x3c>
    3b2c:	0045a683          	lw	x13,4(x11)
    3b30:	00e7e733          	or	x14,x15,x14
    3b34:	00e59623          	sh	x14,12(x11)
    3b38:	18d05863          	bge	x0,x13,3cc8 <__sflush_r+0x1d0>
    3b3c:	02842803          	lw	x16,40(x8)
    3b40:	0e080263          	beq	x16,x0,3c24 <__sflush_r+0x12c>
    3b44:	00c7d793          	srli	x15,x15,0xc
    3b48:	0009a483          	lw	x9,0(x19)
    3b4c:	0017f793          	andi	x15,x15,1
    3b50:	0009a023          	sw	x0,0(x19)
    3b54:	01c42583          	lw	x11,28(x8)
    3b58:	18079063          	bne	x15,x0,3cd8 <__sflush_r+0x1e0>
    3b5c:	00000613          	addi	x12,x0,0
    3b60:	00100693          	addi	x13,x0,1
    3b64:	00098513          	addi	x10,x19,0
    3b68:	000800e7          	jalr	x1,0(x16)
    3b6c:	fff00793          	addi	x15,x0,-1
    3b70:	00050613          	addi	x12,x10,0
    3b74:	1af50063          	beq	x10,x15,3d14 <__sflush_r+0x21c>
    3b78:	00c41703          	lh	x14,12(x8)
    3b7c:	02842803          	lw	x16,40(x8)
    3b80:	01c42583          	lw	x11,28(x8)
    3b84:	00477713          	andi	x14,x14,4
    3b88:	00070e63          	beq	x14,x0,3ba4 <__sflush_r+0xac>
    3b8c:	00442703          	lw	x14,4(x8)
    3b90:	03042783          	lw	x15,48(x8)
    3b94:	40e60633          	sub	x12,x12,x14
    3b98:	00078663          	beq	x15,x0,3ba4 <__sflush_r+0xac>
    3b9c:	03c42783          	lw	x15,60(x8)
    3ba0:	40f60633          	sub	x12,x12,x15
    3ba4:	00000693          	addi	x13,x0,0
    3ba8:	00098513          	addi	x10,x19,0
    3bac:	000800e7          	jalr	x1,0(x16)
    3bb0:	fff00793          	addi	x15,x0,-1
    3bb4:	12f51663          	bne	x10,x15,3ce0 <__sflush_r+0x1e8>
    3bb8:	0009a683          	lw	x13,0(x19)
    3bbc:	01d00793          	addi	x15,x0,29
    3bc0:	0cd7ee63          	bltu	x15,x13,3c9c <__sflush_r+0x1a4>
    3bc4:	dfc00737          	lui	x14,0xdfc00
    3bc8:	ffe70713          	addi	x14,x14,-2 # dfbffffe <__heap_end+0xdf7ffffe>
    3bcc:	40d75733          	sra	x14,x14,x13
    3bd0:	00177713          	andi	x14,x14,1
    3bd4:	00c41783          	lh	x15,12(x8)
    3bd8:	0c071463          	bne	x14,x0,3ca0 <__sflush_r+0x1a8>
    3bdc:	01042603          	lw	x12,16(x8)
    3be0:	fffff737          	lui	x14,0xfffff
    3be4:	7ff70713          	addi	x14,x14,2047 # fffff7ff <__heap_end+0xffbff7ff>
    3be8:	00e7f733          	and	x14,x15,x14
    3bec:	00c7d793          	srli	x15,x15,0xc
    3bf0:	00e41623          	sh	x14,12(x8)
    3bf4:	00042223          	sw	x0,4(x8)
    3bf8:	00c42023          	sw	x12,0(x8)
    3bfc:	0017f793          	andi	x15,x15,1
    3c00:	12079c63          	bne	x15,x0,3d38 <__sflush_r+0x240>
    3c04:	03042583          	lw	x11,48(x8)
    3c08:	0099a023          	sw	x9,0(x19)
    3c0c:	00058c63          	beq	x11,x0,3c24 <__sflush_r+0x12c>
    3c10:	04040793          	addi	x15,x8,64
    3c14:	00f58663          	beq	x11,x15,3c20 <__sflush_r+0x128>
    3c18:	00098513          	addi	x10,x19,0
    3c1c:	6bc000ef          	jal	x1,42d8 <_free_r>
    3c20:	02042823          	sw	x0,48(x8)
    3c24:	00000513          	addi	x10,x0,0
    3c28:	01c12083          	lw	x1,28(x2)
    3c2c:	01812403          	lw	x8,24(x2)
    3c30:	01412483          	lw	x9,20(x2)
    3c34:	01012903          	lw	x18,16(x2)
    3c38:	00c12983          	lw	x19,12(x2)
    3c3c:	02010113          	addi	x2,x2,32
    3c40:	00008067          	jalr	x0,0(x1)
    3c44:	0105a903          	lw	x18,16(x11)
    3c48:	fc090ee3          	beq	x18,x0,3c24 <__sflush_r+0x12c>
    3c4c:	0005a483          	lw	x9,0(x11)
    3c50:	0037f793          	andi	x15,x15,3
    3c54:	0125a023          	sw	x18,0(x11)
    3c58:	412484b3          	sub	x9,x9,x18
    3c5c:	00000713          	addi	x14,x0,0
    3c60:	00079463          	bne	x15,x0,3c68 <__sflush_r+0x170>
    3c64:	0145a703          	lw	x14,20(x11)
    3c68:	00e42423          	sw	x14,8(x8)
    3c6c:	00904863          	blt	x0,x9,3c7c <__sflush_r+0x184>
    3c70:	fb5ff06f          	jal	x0,3c24 <__sflush_r+0x12c>
    3c74:	00a90933          	add	x18,x18,x10
    3c78:	fa9056e3          	bge	x0,x9,3c24 <__sflush_r+0x12c>
    3c7c:	02442783          	lw	x15,36(x8)
    3c80:	01c42583          	lw	x11,28(x8)
    3c84:	00048693          	addi	x13,x9,0
    3c88:	00090613          	addi	x12,x18,0
    3c8c:	00098513          	addi	x10,x19,0
    3c90:	000780e7          	jalr	x1,0(x15)
    3c94:	40a484b3          	sub	x9,x9,x10
    3c98:	fca04ee3          	blt	x0,x10,3c74 <__sflush_r+0x17c>
    3c9c:	00c41783          	lh	x15,12(x8)
    3ca0:	0407e793          	ori	x15,x15,64
    3ca4:	01c12083          	lw	x1,28(x2)
    3ca8:	00f41623          	sh	x15,12(x8)
    3cac:	01812403          	lw	x8,24(x2)
    3cb0:	01412483          	lw	x9,20(x2)
    3cb4:	01012903          	lw	x18,16(x2)
    3cb8:	00c12983          	lw	x19,12(x2)
    3cbc:	fff00513          	addi	x10,x0,-1
    3cc0:	02010113          	addi	x2,x2,32
    3cc4:	00008067          	jalr	x0,0(x1)
    3cc8:	03c5a683          	lw	x13,60(x11)
    3ccc:	e6d048e3          	blt	x0,x13,3b3c <__sflush_r+0x44>
    3cd0:	00000513          	addi	x10,x0,0
    3cd4:	f55ff06f          	jal	x0,3c28 <__sflush_r+0x130>
    3cd8:	05042603          	lw	x12,80(x8)
    3cdc:	ea9ff06f          	jal	x0,3b84 <__sflush_r+0x8c>
    3ce0:	00c41783          	lh	x15,12(x8)
    3ce4:	01042683          	lw	x13,16(x8)
    3ce8:	fffff737          	lui	x14,0xfffff
    3cec:	7ff70713          	addi	x14,x14,2047 # fffff7ff <__heap_end+0xffbff7ff>
    3cf0:	00e7f733          	and	x14,x15,x14
    3cf4:	00c7d793          	srli	x15,x15,0xc
    3cf8:	00e41623          	sh	x14,12(x8)
    3cfc:	00042223          	sw	x0,4(x8)
    3d00:	00d42023          	sw	x13,0(x8)
    3d04:	0017f793          	andi	x15,x15,1
    3d08:	ee078ee3          	beq	x15,x0,3c04 <__sflush_r+0x10c>
    3d0c:	04a42823          	sw	x10,80(x8)
    3d10:	ef5ff06f          	jal	x0,3c04 <__sflush_r+0x10c>
    3d14:	0009a783          	lw	x15,0(x19)
    3d18:	e60780e3          	beq	x15,x0,3b78 <__sflush_r+0x80>
    3d1c:	01d00713          	addi	x14,x0,29
    3d20:	00e78663          	beq	x15,x14,3d2c <__sflush_r+0x234>
    3d24:	01600713          	addi	x14,x0,22
    3d28:	f6e79ae3          	bne	x15,x14,3c9c <__sflush_r+0x1a4>
    3d2c:	0099a023          	sw	x9,0(x19)
    3d30:	00000513          	addi	x10,x0,0
    3d34:	ef5ff06f          	jal	x0,3c28 <__sflush_r+0x130>
    3d38:	ec0696e3          	bne	x13,x0,3c04 <__sflush_r+0x10c>
    3d3c:	04a42823          	sw	x10,80(x8)
    3d40:	ec5ff06f          	jal	x0,3c04 <__sflush_r+0x10c>

00003d44 <_fflush_r>:
    3d44:	fe010113          	addi	x2,x2,-32
    3d48:	00812c23          	sw	x8,24(x2)
    3d4c:	00112e23          	sw	x1,28(x2)
    3d50:	00050413          	addi	x8,x10,0
    3d54:	00050663          	beq	x10,x0,3d60 <_fflush_r+0x1c>
    3d58:	03852783          	lw	x15,56(x10)
    3d5c:	02078063          	beq	x15,x0,3d7c <_fflush_r+0x38>
    3d60:	00c59783          	lh	x15,12(x11)
    3d64:	02079663          	bne	x15,x0,3d90 <_fflush_r+0x4c>
    3d68:	01c12083          	lw	x1,28(x2)
    3d6c:	01812403          	lw	x8,24(x2)
    3d70:	00000513          	addi	x10,x0,0
    3d74:	02010113          	addi	x2,x2,32
    3d78:	00008067          	jalr	x0,0(x1)
    3d7c:	00b12623          	sw	x11,12(x2)
    3d80:	3e8000ef          	jal	x1,4168 <__sinit>
    3d84:	00c12583          	lw	x11,12(x2)
    3d88:	00c59783          	lh	x15,12(x11)
    3d8c:	fc078ee3          	beq	x15,x0,3d68 <_fflush_r+0x24>
    3d90:	00040513          	addi	x10,x8,0
    3d94:	01812403          	lw	x8,24(x2)
    3d98:	01c12083          	lw	x1,28(x2)
    3d9c:	02010113          	addi	x2,x2,32
    3da0:	d59ff06f          	jal	x0,3af8 <__sflush_r>

00003da4 <fflush>:
    3da4:	06050663          	beq	x10,x0,3e10 <fflush+0x6c>
    3da8:	fe010113          	addi	x2,x2,-32
    3dac:	00812c23          	sw	x8,24(x2)
    3db0:	00050413          	addi	x8,x10,0
    3db4:	1c01a503          	lw	x10,448(x3) # 15da0 <_impure_ptr>
    3db8:	00112e23          	sw	x1,28(x2)
    3dbc:	00050663          	beq	x10,x0,3dc8 <fflush+0x24>
    3dc0:	03852783          	lw	x15,56(x10)
    3dc4:	02078a63          	beq	x15,x0,3df8 <fflush+0x54>
    3dc8:	00c41783          	lh	x15,12(x8)
    3dcc:	00079c63          	bne	x15,x0,3de4 <fflush+0x40>
    3dd0:	01c12083          	lw	x1,28(x2)
    3dd4:	01812403          	lw	x8,24(x2)
    3dd8:	00000513          	addi	x10,x0,0
    3ddc:	02010113          	addi	x2,x2,32
    3de0:	00008067          	jalr	x0,0(x1)
    3de4:	00040593          	addi	x11,x8,0
    3de8:	01812403          	lw	x8,24(x2)
    3dec:	01c12083          	lw	x1,28(x2)
    3df0:	02010113          	addi	x2,x2,32
    3df4:	d05ff06f          	jal	x0,3af8 <__sflush_r>
    3df8:	00a12623          	sw	x10,12(x2)
    3dfc:	36c000ef          	jal	x1,4168 <__sinit>
    3e00:	00c41783          	lh	x15,12(x8)
    3e04:	00c12503          	lw	x10,12(x2)
    3e08:	fc0784e3          	beq	x15,x0,3dd0 <fflush+0x2c>
    3e0c:	fd9ff06f          	jal	x0,3de4 <fflush+0x40>
    3e10:	1b81a503          	lw	x10,440(x3) # 15d98 <_global_impure_ptr>
    3e14:	000045b7          	lui	x11,0x4
    3e18:	d4458593          	addi	x11,x11,-700 # 3d44 <_fflush_r>
    3e1c:	4f50006f          	jal	x0,4b10 <_fwalk_reent>

00003e20 <__fp_lock>:
    3e20:	00000513          	addi	x10,x0,0
    3e24:	00008067          	jalr	x0,0(x1)

00003e28 <_cleanup_r>:
    3e28:	0000e5b7          	lui	x11,0xe
    3e2c:	55858593          	addi	x11,x11,1368 # e558 <_fclose_r>
    3e30:	4e10006f          	jal	x0,4b10 <_fwalk_reent>

00003e34 <__fp_unlock>:
    3e34:	00000513          	addi	x10,x0,0
    3e38:	00008067          	jalr	x0,0(x1)

00003e3c <__sinit.part.0>:
    3e3c:	fe010113          	addi	x2,x2,-32
    3e40:	000047b7          	lui	x15,0x4
    3e44:	00112e23          	sw	x1,28(x2)
    3e48:	00812c23          	sw	x8,24(x2)
    3e4c:	00912a23          	sw	x9,20(x2)
    3e50:	01212823          	sw	x18,16(x2)
    3e54:	01312623          	sw	x19,12(x2)
    3e58:	01412423          	sw	x20,8(x2)
    3e5c:	01512223          	sw	x21,4(x2)
    3e60:	01612023          	sw	x22,0(x2)
    3e64:	00452403          	lw	x8,4(x10)
    3e68:	e2878793          	addi	x15,x15,-472 # 3e28 <_cleanup_r>
    3e6c:	02f52e23          	sw	x15,60(x10)
    3e70:	2ec50713          	addi	x14,x10,748
    3e74:	00300793          	addi	x15,x0,3
    3e78:	2ee52423          	sw	x14,744(x10)
    3e7c:	2ef52223          	sw	x15,740(x10)
    3e80:	2e052023          	sw	x0,736(x10)
    3e84:	00400793          	addi	x15,x0,4
    3e88:	00050913          	addi	x18,x10,0
    3e8c:	00f42623          	sw	x15,12(x8)
    3e90:	00800613          	addi	x12,x0,8
    3e94:	00000593          	addi	x11,x0,0
    3e98:	00042023          	sw	x0,0(x8)
    3e9c:	00042223          	sw	x0,4(x8)
    3ea0:	00042423          	sw	x0,8(x8)
    3ea4:	06042223          	sw	x0,100(x8)
    3ea8:	00042823          	sw	x0,16(x8)
    3eac:	00042a23          	sw	x0,20(x8)
    3eb0:	00042c23          	sw	x0,24(x8)
    3eb4:	05c40513          	addi	x10,x8,92
    3eb8:	f88fc0ef          	jal	x1,640 <memset>
    3ebc:	0000ab37          	lui	x22,0xa
    3ec0:	00892483          	lw	x9,8(x18)
    3ec4:	0000aab7          	lui	x21,0xa
    3ec8:	0000aa37          	lui	x20,0xa
    3ecc:	0000a9b7          	lui	x19,0xa
    3ed0:	060b0b13          	addi	x22,x22,96 # a060 <__sread>
    3ed4:	0c4a8a93          	addi	x21,x21,196 # a0c4 <__swrite>
    3ed8:	14ca0a13          	addi	x20,x20,332 # a14c <__sseek>
    3edc:	1c498993          	addi	x19,x19,452 # a1c4 <__sclose>
    3ee0:	000107b7          	lui	x15,0x10
    3ee4:	03642023          	sw	x22,32(x8)
    3ee8:	03542223          	sw	x21,36(x8)
    3eec:	03442423          	sw	x20,40(x8)
    3ef0:	03342623          	sw	x19,44(x8)
    3ef4:	00842e23          	sw	x8,28(x8)
    3ef8:	00978793          	addi	x15,x15,9 # 10009 <__sigtramp_r+0x25>
    3efc:	00f4a623          	sw	x15,12(x9)
    3f00:	00800613          	addi	x12,x0,8
    3f04:	00000593          	addi	x11,x0,0
    3f08:	0004a023          	sw	x0,0(x9)
    3f0c:	0004a223          	sw	x0,4(x9)
    3f10:	0004a423          	sw	x0,8(x9)
    3f14:	0604a223          	sw	x0,100(x9)
    3f18:	0004a823          	sw	x0,16(x9)
    3f1c:	0004aa23          	sw	x0,20(x9)
    3f20:	0004ac23          	sw	x0,24(x9)
    3f24:	05c48513          	addi	x10,x9,92
    3f28:	f18fc0ef          	jal	x1,640 <memset>
    3f2c:	00c92403          	lw	x8,12(x18)
    3f30:	000207b7          	lui	x15,0x20
    3f34:	0364a023          	sw	x22,32(x9)
    3f38:	0354a223          	sw	x21,36(x9)
    3f3c:	0344a423          	sw	x20,40(x9)
    3f40:	0334a623          	sw	x19,44(x9)
    3f44:	0094ae23          	sw	x9,28(x9)
    3f48:	01278793          	addi	x15,x15,18 # 20012 <__heap_start+0xa222>
    3f4c:	00f42623          	sw	x15,12(x8)
    3f50:	00042023          	sw	x0,0(x8)
    3f54:	00042223          	sw	x0,4(x8)
    3f58:	00042423          	sw	x0,8(x8)
    3f5c:	06042223          	sw	x0,100(x8)
    3f60:	00042823          	sw	x0,16(x8)
    3f64:	00042a23          	sw	x0,20(x8)
    3f68:	00042c23          	sw	x0,24(x8)
    3f6c:	05c40513          	addi	x10,x8,92
    3f70:	00800613          	addi	x12,x0,8
    3f74:	00000593          	addi	x11,x0,0
    3f78:	ec8fc0ef          	jal	x1,640 <memset>
    3f7c:	01c12083          	lw	x1,28(x2)
    3f80:	03642023          	sw	x22,32(x8)
    3f84:	03542223          	sw	x21,36(x8)
    3f88:	03442423          	sw	x20,40(x8)
    3f8c:	03342623          	sw	x19,44(x8)
    3f90:	00842e23          	sw	x8,28(x8)
    3f94:	01812403          	lw	x8,24(x2)
    3f98:	00100793          	addi	x15,x0,1
    3f9c:	02f92c23          	sw	x15,56(x18)
    3fa0:	01412483          	lw	x9,20(x2)
    3fa4:	01012903          	lw	x18,16(x2)
    3fa8:	00c12983          	lw	x19,12(x2)
    3fac:	00812a03          	lw	x20,8(x2)
    3fb0:	00412a83          	lw	x21,4(x2)
    3fb4:	00012b03          	lw	x22,0(x2)
    3fb8:	02010113          	addi	x2,x2,32
    3fbc:	00008067          	jalr	x0,0(x1)

00003fc0 <__sfmoreglue>:
    3fc0:	ff010113          	addi	x2,x2,-16
    3fc4:	00912223          	sw	x9,4(x2)
    3fc8:	06800793          	addi	x15,x0,104
    3fcc:	fff58493          	addi	x9,x11,-1
    3fd0:	02f484b3          	mul	x9,x9,x15
    3fd4:	01212023          	sw	x18,0(x2)
    3fd8:	00058913          	addi	x18,x11,0
    3fdc:	00812423          	sw	x8,8(x2)
    3fe0:	00112623          	sw	x1,12(x2)
    3fe4:	07448593          	addi	x11,x9,116
    3fe8:	3d1030ef          	jal	x1,7bb8 <_malloc_r>
    3fec:	00050413          	addi	x8,x10,0
    3ff0:	02050063          	beq	x10,x0,4010 <__sfmoreglue+0x50>
    3ff4:	00c50513          	addi	x10,x10,12
    3ff8:	00042023          	sw	x0,0(x8)
    3ffc:	01242223          	sw	x18,4(x8)
    4000:	00a42423          	sw	x10,8(x8)
    4004:	06848613          	addi	x12,x9,104
    4008:	00000593          	addi	x11,x0,0
    400c:	e34fc0ef          	jal	x1,640 <memset>
    4010:	00c12083          	lw	x1,12(x2)
    4014:	00040513          	addi	x10,x8,0
    4018:	00812403          	lw	x8,8(x2)
    401c:	00412483          	lw	x9,4(x2)
    4020:	00012903          	lw	x18,0(x2)
    4024:	01010113          	addi	x2,x2,16
    4028:	00008067          	jalr	x0,0(x1)

0000402c <__sfp>:
    402c:	fe010113          	addi	x2,x2,-32
    4030:	01212823          	sw	x18,16(x2)
    4034:	1b81a903          	lw	x18,440(x3) # 15d98 <_global_impure_ptr>
    4038:	01312623          	sw	x19,12(x2)
    403c:	00112e23          	sw	x1,28(x2)
    4040:	03892783          	lw	x15,56(x18)
    4044:	00812c23          	sw	x8,24(x2)
    4048:	00912a23          	sw	x9,20(x2)
    404c:	00050993          	addi	x19,x10,0
    4050:	0a078663          	beq	x15,x0,40fc <__sfp+0xd0>
    4054:	2e090913          	addi	x18,x18,736
    4058:	fff00493          	addi	x9,x0,-1
    405c:	00492783          	lw	x15,4(x18)
    4060:	00892403          	lw	x8,8(x18)
    4064:	fff78793          	addi	x15,x15,-1
    4068:	0007d863          	bge	x15,x0,4078 <__sfp+0x4c>
    406c:	0800006f          	jal	x0,40ec <__sfp+0xc0>
    4070:	06840413          	addi	x8,x8,104
    4074:	06978c63          	beq	x15,x9,40ec <__sfp+0xc0>
    4078:	00c41703          	lh	x14,12(x8)
    407c:	fff78793          	addi	x15,x15,-1
    4080:	fe0718e3          	bne	x14,x0,4070 <__sfp+0x44>
    4084:	ffff07b7          	lui	x15,0xffff0
    4088:	00178793          	addi	x15,x15,1 # ffff0001 <__heap_end+0xffbf0001>
    408c:	00f42623          	sw	x15,12(x8)
    4090:	06042223          	sw	x0,100(x8)
    4094:	00042023          	sw	x0,0(x8)
    4098:	00042423          	sw	x0,8(x8)
    409c:	00042223          	sw	x0,4(x8)
    40a0:	00042823          	sw	x0,16(x8)
    40a4:	00042a23          	sw	x0,20(x8)
    40a8:	00042c23          	sw	x0,24(x8)
    40ac:	00800613          	addi	x12,x0,8
    40b0:	00000593          	addi	x11,x0,0
    40b4:	05c40513          	addi	x10,x8,92
    40b8:	d88fc0ef          	jal	x1,640 <memset>
    40bc:	02042823          	sw	x0,48(x8)
    40c0:	02042a23          	sw	x0,52(x8)
    40c4:	04042223          	sw	x0,68(x8)
    40c8:	04042423          	sw	x0,72(x8)
    40cc:	01c12083          	lw	x1,28(x2)
    40d0:	00040513          	addi	x10,x8,0
    40d4:	01812403          	lw	x8,24(x2)
    40d8:	01412483          	lw	x9,20(x2)
    40dc:	01012903          	lw	x18,16(x2)
    40e0:	00c12983          	lw	x19,12(x2)
    40e4:	02010113          	addi	x2,x2,32
    40e8:	00008067          	jalr	x0,0(x1)
    40ec:	00092403          	lw	x8,0(x18)
    40f0:	00040c63          	beq	x8,x0,4108 <__sfp+0xdc>
    40f4:	00040913          	addi	x18,x8,0
    40f8:	f65ff06f          	jal	x0,405c <__sfp+0x30>
    40fc:	00090513          	addi	x10,x18,0
    4100:	d3dff0ef          	jal	x1,3e3c <__sinit.part.0>
    4104:	f51ff06f          	jal	x0,4054 <__sfp+0x28>
    4108:	1ac00593          	addi	x11,x0,428
    410c:	00098513          	addi	x10,x19,0
    4110:	2a9030ef          	jal	x1,7bb8 <_malloc_r>
    4114:	00050413          	addi	x8,x10,0
    4118:	02050863          	beq	x10,x0,4148 <__sfp+0x11c>
    411c:	00c50513          	addi	x10,x10,12
    4120:	00400793          	addi	x15,x0,4
    4124:	00042023          	sw	x0,0(x8)
    4128:	00f42223          	sw	x15,4(x8)
    412c:	00a42423          	sw	x10,8(x8)
    4130:	1a000613          	addi	x12,x0,416
    4134:	00000593          	addi	x11,x0,0
    4138:	d08fc0ef          	jal	x1,640 <memset>
    413c:	00892023          	sw	x8,0(x18)
    4140:	00040913          	addi	x18,x8,0
    4144:	f19ff06f          	jal	x0,405c <__sfp+0x30>
    4148:	00092023          	sw	x0,0(x18)
    414c:	00c00793          	addi	x15,x0,12
    4150:	00f9a023          	sw	x15,0(x19)
    4154:	f79ff06f          	jal	x0,40cc <__sfp+0xa0>

00004158 <_cleanup>:
    4158:	1b81a503          	lw	x10,440(x3) # 15d98 <_global_impure_ptr>
    415c:	0000e5b7          	lui	x11,0xe
    4160:	55858593          	addi	x11,x11,1368 # e558 <_fclose_r>
    4164:	1ad0006f          	jal	x0,4b10 <_fwalk_reent>

00004168 <__sinit>:
    4168:	03852783          	lw	x15,56(x10)
    416c:	00078463          	beq	x15,x0,4174 <__sinit+0xc>
    4170:	00008067          	jalr	x0,0(x1)
    4174:	cc9ff06f          	jal	x0,3e3c <__sinit.part.0>

00004178 <__sfp_lock_acquire>:
    4178:	00008067          	jalr	x0,0(x1)

0000417c <__sfp_lock_release>:
    417c:	00008067          	jalr	x0,0(x1)

00004180 <__sinit_lock_acquire>:
    4180:	00008067          	jalr	x0,0(x1)

00004184 <__sinit_lock_release>:
    4184:	00008067          	jalr	x0,0(x1)

00004188 <__fp_lock_all>:
    4188:	1c01a503          	lw	x10,448(x3) # 15da0 <_impure_ptr>
    418c:	000045b7          	lui	x11,0x4
    4190:	e2058593          	addi	x11,x11,-480 # 3e20 <__fp_lock>
    4194:	0d90006f          	jal	x0,4a6c <_fwalk>

00004198 <__fp_unlock_all>:
    4198:	1c01a503          	lw	x10,448(x3) # 15da0 <_impure_ptr>
    419c:	000045b7          	lui	x11,0x4
    41a0:	e3458593          	addi	x11,x11,-460 # 3e34 <__fp_unlock>
    41a4:	0c90006f          	jal	x0,4a6c <_fwalk>

000041a8 <_malloc_trim_r>:
    41a8:	fe010113          	addi	x2,x2,-32
    41ac:	01312623          	sw	x19,12(x2)
    41b0:	00812c23          	sw	x8,24(x2)
    41b4:	00912a23          	sw	x9,20(x2)
    41b8:	01212823          	sw	x18,16(x2)
    41bc:	01412423          	sw	x20,8(x2)
    41c0:	00112e23          	sw	x1,28(x2)
    41c4:	00058a13          	addi	x20,x11,0
    41c8:	00050913          	addi	x18,x10,0
    41cc:	d9418993          	addi	x19,x3,-620 # 15974 <__malloc_av_>
    41d0:	550040ef          	jal	x1,8720 <__malloc_lock>
    41d4:	0089a703          	lw	x14,8(x19)
    41d8:	000017b7          	lui	x15,0x1
    41dc:	fef78413          	addi	x8,x15,-17 # fef <_vfprintf_r+0x3d7>
    41e0:	00472483          	lw	x9,4(x14)
    41e4:	ffc4f493          	andi	x9,x9,-4
    41e8:	00848433          	add	x8,x9,x8
    41ec:	41440433          	sub	x8,x8,x20
    41f0:	00c45413          	srli	x8,x8,0xc
    41f4:	fff40413          	addi	x8,x8,-1
    41f8:	00c41413          	slli	x8,x8,0xc
    41fc:	00f44e63          	blt	x8,x15,4218 <_malloc_trim_r+0x70>
    4200:	00000593          	addi	x11,x0,0
    4204:	00090513          	addi	x10,x18,0
    4208:	471050ef          	jal	x1,9e78 <_sbrk_r>
    420c:	0089a783          	lw	x15,8(x19)
    4210:	009787b3          	add	x15,x15,x9
    4214:	02f50863          	beq	x10,x15,4244 <_malloc_trim_r+0x9c>
    4218:	00090513          	addi	x10,x18,0
    421c:	508040ef          	jal	x1,8724 <__malloc_unlock>
    4220:	01c12083          	lw	x1,28(x2)
    4224:	01812403          	lw	x8,24(x2)
    4228:	01412483          	lw	x9,20(x2)
    422c:	01012903          	lw	x18,16(x2)
    4230:	00c12983          	lw	x19,12(x2)
    4234:	00812a03          	lw	x20,8(x2)
    4238:	00000513          	addi	x10,x0,0
    423c:	02010113          	addi	x2,x2,32
    4240:	00008067          	jalr	x0,0(x1)
    4244:	408005b3          	sub	x11,x0,x8
    4248:	00090513          	addi	x10,x18,0
    424c:	42d050ef          	jal	x1,9e78 <_sbrk_r>
    4250:	fff00793          	addi	x15,x0,-1
    4254:	04f50863          	beq	x10,x15,42a4 <_malloc_trim_r+0xfc>
    4258:	1e018793          	addi	x15,x3,480 # 15dc0 <__malloc_current_mallinfo>
    425c:	0007a703          	lw	x14,0(x15)
    4260:	0089a683          	lw	x13,8(x19)
    4264:	408484b3          	sub	x9,x9,x8
    4268:	0014e493          	ori	x9,x9,1
    426c:	40870733          	sub	x14,x14,x8
    4270:	00090513          	addi	x10,x18,0
    4274:	0096a223          	sw	x9,4(x13)
    4278:	00e7a023          	sw	x14,0(x15)
    427c:	4a8040ef          	jal	x1,8724 <__malloc_unlock>
    4280:	01c12083          	lw	x1,28(x2)
    4284:	01812403          	lw	x8,24(x2)
    4288:	01412483          	lw	x9,20(x2)
    428c:	01012903          	lw	x18,16(x2)
    4290:	00c12983          	lw	x19,12(x2)
    4294:	00812a03          	lw	x20,8(x2)
    4298:	00100513          	addi	x10,x0,1
    429c:	02010113          	addi	x2,x2,32
    42a0:	00008067          	jalr	x0,0(x1)
    42a4:	00000593          	addi	x11,x0,0
    42a8:	00090513          	addi	x10,x18,0
    42ac:	3cd050ef          	jal	x1,9e78 <_sbrk_r>
    42b0:	0089a703          	lw	x14,8(x19)
    42b4:	00f00693          	addi	x13,x0,15
    42b8:	40e507b3          	sub	x15,x10,x14
    42bc:	f4f6dee3          	bge	x13,x15,4218 <_malloc_trim_r+0x70>
    42c0:	1c41a683          	lw	x13,452(x3) # 15da4 <__malloc_sbrk_base>
    42c4:	0017e793          	ori	x15,x15,1
    42c8:	00f72223          	sw	x15,4(x14)
    42cc:	40d50533          	sub	x10,x10,x13
    42d0:	1ea1a023          	sw	x10,480(x3) # 15dc0 <__malloc_current_mallinfo>
    42d4:	f45ff06f          	jal	x0,4218 <_malloc_trim_r+0x70>

000042d8 <_free_r>:
    42d8:	16058e63          	beq	x11,x0,4454 <_free_r+0x17c>
    42dc:	ff010113          	addi	x2,x2,-16
    42e0:	00812423          	sw	x8,8(x2)
    42e4:	00912223          	sw	x9,4(x2)
    42e8:	00058413          	addi	x8,x11,0
    42ec:	00050493          	addi	x9,x10,0
    42f0:	00112623          	sw	x1,12(x2)
    42f4:	42c040ef          	jal	x1,8720 <__malloc_lock>
    42f8:	ffc42503          	lw	x10,-4(x8)
    42fc:	ff840713          	addi	x14,x8,-8
    4300:	ffe57793          	andi	x15,x10,-2
    4304:	00f70633          	add	x12,x14,x15
    4308:	d9418593          	addi	x11,x3,-620 # 15974 <__malloc_av_>
    430c:	00462683          	lw	x13,4(x12)
    4310:	0085a803          	lw	x16,8(x11)
    4314:	ffc6f693          	andi	x13,x13,-4
    4318:	18c80e63          	beq	x16,x12,44b4 <_free_r+0x1dc>
    431c:	00d62223          	sw	x13,4(x12)
    4320:	00157513          	andi	x10,x10,1
    4324:	00d60833          	add	x16,x12,x13
    4328:	08051e63          	bne	x10,x0,43c4 <_free_r+0xec>
    432c:	ff842303          	lw	x6,-8(x8)
    4330:	00482803          	lw	x16,4(x16)
    4334:	40670733          	sub	x14,x14,x6
    4338:	00872883          	lw	x17,8(x14)
    433c:	d9c18513          	addi	x10,x3,-612 # 1597c <__malloc_av_+0x8>
    4340:	006787b3          	add	x15,x15,x6
    4344:	00187813          	andi	x16,x16,1
    4348:	14a88063          	beq	x17,x10,4488 <_free_r+0x1b0>
    434c:	00c72303          	lw	x6,12(x14)
    4350:	0068a623          	sw	x6,12(x17)
    4354:	01132423          	sw	x17,8(x6)
    4358:	1a080463          	beq	x16,x0,4500 <_free_r+0x228>
    435c:	0017e693          	ori	x13,x15,1
    4360:	00d72223          	sw	x13,4(x14)
    4364:	00f62023          	sw	x15,0(x12)
    4368:	1ff00693          	addi	x13,x0,511
    436c:	06f6ec63          	bltu	x13,x15,43e4 <_free_r+0x10c>
    4370:	ff87f693          	andi	x13,x15,-8
    4374:	00868693          	addi	x13,x13,8
    4378:	0045a503          	lw	x10,4(x11)
    437c:	00d586b3          	add	x13,x11,x13
    4380:	0006a603          	lw	x12,0(x13)
    4384:	0057d813          	srli	x16,x15,0x5
    4388:	00100793          	addi	x15,x0,1
    438c:	010797b3          	sll	x15,x15,x16
    4390:	00a7e7b3          	or	x15,x15,x10
    4394:	ff868513          	addi	x10,x13,-8
    4398:	00a72623          	sw	x10,12(x14)
    439c:	00c72423          	sw	x12,8(x14)
    43a0:	00f5a223          	sw	x15,4(x11)
    43a4:	00e6a023          	sw	x14,0(x13)
    43a8:	00e62623          	sw	x14,12(x12)
    43ac:	00812403          	lw	x8,8(x2)
    43b0:	00c12083          	lw	x1,12(x2)
    43b4:	00048513          	addi	x10,x9,0
    43b8:	00412483          	lw	x9,4(x2)
    43bc:	01010113          	addi	x2,x2,16
    43c0:	3640406f          	jal	x0,8724 <__malloc_unlock>
    43c4:	00482503          	lw	x10,4(x16)
    43c8:	00157513          	andi	x10,x10,1
    43cc:	08050663          	beq	x10,x0,4458 <_free_r+0x180>
    43d0:	0017e693          	ori	x13,x15,1
    43d4:	fed42e23          	sw	x13,-4(x8)
    43d8:	00f62023          	sw	x15,0(x12)
    43dc:	1ff00693          	addi	x13,x0,511
    43e0:	f8f6f8e3          	bgeu	x13,x15,4370 <_free_r+0x98>
    43e4:	0097d693          	srli	x13,x15,0x9
    43e8:	00400613          	addi	x12,x0,4
    43ec:	10d66e63          	bltu	x12,x13,4508 <_free_r+0x230>
    43f0:	0067d693          	srli	x13,x15,0x6
    43f4:	03968513          	addi	x10,x13,57
    43f8:	03868613          	addi	x12,x13,56
    43fc:	00351513          	slli	x10,x10,0x3
    4400:	00a58533          	add	x10,x11,x10
    4404:	00052683          	lw	x13,0(x10)
    4408:	ff850513          	addi	x10,x10,-8
    440c:	00d51863          	bne	x10,x13,441c <_free_r+0x144>
    4410:	1500006f          	jal	x0,4560 <_free_r+0x288>
    4414:	0086a683          	lw	x13,8(x13)
    4418:	00d50863          	beq	x10,x13,4428 <_free_r+0x150>
    441c:	0046a603          	lw	x12,4(x13)
    4420:	ffc67613          	andi	x12,x12,-4
    4424:	fec7e8e3          	bltu	x15,x12,4414 <_free_r+0x13c>
    4428:	00c6a503          	lw	x10,12(x13)
    442c:	00a72623          	sw	x10,12(x14)
    4430:	00d72423          	sw	x13,8(x14)
    4434:	00812403          	lw	x8,8(x2)
    4438:	00e52423          	sw	x14,8(x10)
    443c:	00c12083          	lw	x1,12(x2)
    4440:	00048513          	addi	x10,x9,0
    4444:	00412483          	lw	x9,4(x2)
    4448:	00e6a623          	sw	x14,12(x13)
    444c:	01010113          	addi	x2,x2,16
    4450:	2d40406f          	jal	x0,8724 <__malloc_unlock>
    4454:	00008067          	jalr	x0,0(x1)
    4458:	00d787b3          	add	x15,x15,x13
    445c:	d9c18513          	addi	x10,x3,-612 # 1597c <__malloc_av_+0x8>
    4460:	00862683          	lw	x13,8(x12)
    4464:	0ca68c63          	beq	x13,x10,453c <_free_r+0x264>
    4468:	00c62803          	lw	x16,12(x12)
    446c:	0017e513          	ori	x10,x15,1
    4470:	00f70633          	add	x12,x14,x15
    4474:	0106a623          	sw	x16,12(x13)
    4478:	00d82423          	sw	x13,8(x16)
    447c:	00a72223          	sw	x10,4(x14)
    4480:	00f62023          	sw	x15,0(x12)
    4484:	ee5ff06f          	jal	x0,4368 <_free_r+0x90>
    4488:	12081c63          	bne	x16,x0,45c0 <_free_r+0x2e8>
    448c:	00862583          	lw	x11,8(x12)
    4490:	00c62603          	lw	x12,12(x12)
    4494:	00f686b3          	add	x13,x13,x15
    4498:	0016e793          	ori	x15,x13,1
    449c:	00c5a623          	sw	x12,12(x11)
    44a0:	00b62423          	sw	x11,8(x12)
    44a4:	00f72223          	sw	x15,4(x14)
    44a8:	00d70733          	add	x14,x14,x13
    44ac:	00d72023          	sw	x13,0(x14)
    44b0:	efdff06f          	jal	x0,43ac <_free_r+0xd4>
    44b4:	00157513          	andi	x10,x10,1
    44b8:	00d786b3          	add	x13,x15,x13
    44bc:	02051063          	bne	x10,x0,44dc <_free_r+0x204>
    44c0:	ff842503          	lw	x10,-8(x8)
    44c4:	40a70733          	sub	x14,x14,x10
    44c8:	00c72783          	lw	x15,12(x14)
    44cc:	00872603          	lw	x12,8(x14)
    44d0:	00a686b3          	add	x13,x13,x10
    44d4:	00f62623          	sw	x15,12(x12)
    44d8:	00c7a423          	sw	x12,8(x15)
    44dc:	0016e613          	ori	x12,x13,1
    44e0:	1c81a783          	lw	x15,456(x3) # 15da8 <__malloc_trim_threshold>
    44e4:	00c72223          	sw	x12,4(x14)
    44e8:	00e5a423          	sw	x14,8(x11)
    44ec:	ecf6e0e3          	bltu	x13,x15,43ac <_free_r+0xd4>
    44f0:	1dc1a583          	lw	x11,476(x3) # 15dbc <__malloc_top_pad>
    44f4:	00048513          	addi	x10,x9,0
    44f8:	cb1ff0ef          	jal	x1,41a8 <_malloc_trim_r>
    44fc:	eb1ff06f          	jal	x0,43ac <_free_r+0xd4>
    4500:	00d787b3          	add	x15,x15,x13
    4504:	f5dff06f          	jal	x0,4460 <_free_r+0x188>
    4508:	01400613          	addi	x12,x0,20
    450c:	02d67063          	bgeu	x12,x13,452c <_free_r+0x254>
    4510:	05400613          	addi	x12,x0,84
    4514:	06d66463          	bltu	x12,x13,457c <_free_r+0x2a4>
    4518:	00c7d693          	srli	x13,x15,0xc
    451c:	06f68513          	addi	x10,x13,111
    4520:	06e68613          	addi	x12,x13,110
    4524:	00351513          	slli	x10,x10,0x3
    4528:	ed9ff06f          	jal	x0,4400 <_free_r+0x128>
    452c:	05c68513          	addi	x10,x13,92
    4530:	05b68613          	addi	x12,x13,91
    4534:	00351513          	slli	x10,x10,0x3
    4538:	ec9ff06f          	jal	x0,4400 <_free_r+0x128>
    453c:	00e5aa23          	sw	x14,20(x11)
    4540:	00e5a823          	sw	x14,16(x11)
    4544:	0017e693          	ori	x13,x15,1
    4548:	00a72623          	sw	x10,12(x14)
    454c:	00a72423          	sw	x10,8(x14)
    4550:	00d72223          	sw	x13,4(x14)
    4554:	00f70733          	add	x14,x14,x15
    4558:	00f72023          	sw	x15,0(x14)
    455c:	e51ff06f          	jal	x0,43ac <_free_r+0xd4>
    4560:	0045a803          	lw	x16,4(x11)
    4564:	40265613          	srai	x12,x12,0x2
    4568:	00100793          	addi	x15,x0,1
    456c:	00c797b3          	sll	x15,x15,x12
    4570:	0107e7b3          	or	x15,x15,x16
    4574:	00f5a223          	sw	x15,4(x11)
    4578:	eb5ff06f          	jal	x0,442c <_free_r+0x154>
    457c:	15400613          	addi	x12,x0,340
    4580:	00d66c63          	bltu	x12,x13,4598 <_free_r+0x2c0>
    4584:	00f7d693          	srli	x13,x15,0xf
    4588:	07868513          	addi	x10,x13,120
    458c:	07768613          	addi	x12,x13,119
    4590:	00351513          	slli	x10,x10,0x3
    4594:	e6dff06f          	jal	x0,4400 <_free_r+0x128>
    4598:	55400613          	addi	x12,x0,1364
    459c:	00d66c63          	bltu	x12,x13,45b4 <_free_r+0x2dc>
    45a0:	0127d693          	srli	x13,x15,0x12
    45a4:	07d68513          	addi	x10,x13,125
    45a8:	07c68613          	addi	x12,x13,124
    45ac:	00351513          	slli	x10,x10,0x3
    45b0:	e51ff06f          	jal	x0,4400 <_free_r+0x128>
    45b4:	3f800513          	addi	x10,x0,1016
    45b8:	07e00613          	addi	x12,x0,126
    45bc:	e45ff06f          	jal	x0,4400 <_free_r+0x128>
    45c0:	0017e693          	ori	x13,x15,1
    45c4:	00d72223          	sw	x13,4(x14)
    45c8:	00f62023          	sw	x15,0(x12)
    45cc:	de1ff06f          	jal	x0,43ac <_free_r+0xd4>

000045d0 <__sfvwrite_r>:
    45d0:	00862783          	lw	x15,8(x12)
    45d4:	30078a63          	beq	x15,x0,48e8 <__sfvwrite_r+0x318>
    45d8:	00c59683          	lh	x13,12(x11)
    45dc:	fd010113          	addi	x2,x2,-48
    45e0:	02812423          	sw	x8,40(x2)
    45e4:	01412c23          	sw	x20,24(x2)
    45e8:	01612823          	sw	x22,16(x2)
    45ec:	02112623          	sw	x1,44(x2)
    45f0:	02912223          	sw	x9,36(x2)
    45f4:	03212023          	sw	x18,32(x2)
    45f8:	01312e23          	sw	x19,28(x2)
    45fc:	01512a23          	sw	x21,20(x2)
    4600:	01712623          	sw	x23,12(x2)
    4604:	01812423          	sw	x24,8(x2)
    4608:	01912223          	sw	x25,4(x2)
    460c:	0086f793          	andi	x15,x13,8
    4610:	00060b13          	addi	x22,x12,0
    4614:	00050a13          	addi	x20,x10,0
    4618:	00058413          	addi	x8,x11,0
    461c:	08078663          	beq	x15,x0,46a8 <__sfvwrite_r+0xd8>
    4620:	0105a783          	lw	x15,16(x11)
    4624:	08078263          	beq	x15,x0,46a8 <__sfvwrite_r+0xd8>
    4628:	0026f793          	andi	x15,x13,2
    462c:	000b2483          	lw	x9,0(x22)
    4630:	08078c63          	beq	x15,x0,46c8 <__sfvwrite_r+0xf8>
    4634:	02442783          	lw	x15,36(x8)
    4638:	01c42583          	lw	x11,28(x8)
    463c:	80000ab7          	lui	x21,0x80000
    4640:	00000993          	addi	x19,x0,0
    4644:	00000913          	addi	x18,x0,0
    4648:	c00aca93          	xori	x21,x21,-1024
    464c:	00098613          	addi	x12,x19,0
    4650:	000a0513          	addi	x10,x20,0
    4654:	04090263          	beq	x18,x0,4698 <__sfvwrite_r+0xc8>
    4658:	00090693          	addi	x13,x18,0
    465c:	012af463          	bgeu	x21,x18,4664 <__sfvwrite_r+0x94>
    4660:	000a8693          	addi	x13,x21,0 # 80000000 <__heap_end+0x7fc00000>
    4664:	000780e7          	jalr	x1,0(x15)
    4668:	26a05663          	bge	x0,x10,48d4 <__sfvwrite_r+0x304>
    466c:	008b2783          	lw	x15,8(x22)
    4670:	00a989b3          	add	x19,x19,x10
    4674:	40a90933          	sub	x18,x18,x10
    4678:	40a787b3          	sub	x15,x15,x10
    467c:	00fb2423          	sw	x15,8(x22)
    4680:	20078663          	beq	x15,x0,488c <__sfvwrite_r+0x2bc>
    4684:	02442783          	lw	x15,36(x8)
    4688:	01c42583          	lw	x11,28(x8)
    468c:	00098613          	addi	x12,x19,0
    4690:	000a0513          	addi	x10,x20,0
    4694:	fc0912e3          	bne	x18,x0,4658 <__sfvwrite_r+0x88>
    4698:	0004a983          	lw	x19,0(x9)
    469c:	0044a903          	lw	x18,4(x9)
    46a0:	00848493          	addi	x9,x9,8
    46a4:	fa9ff06f          	jal	x0,464c <__sfvwrite_r+0x7c>
    46a8:	00040593          	addi	x11,x8,0
    46ac:	000a0513          	addi	x10,x20,0
    46b0:	950ff0ef          	jal	x1,3800 <__swsetup_r>
    46b4:	22051663          	bne	x10,x0,48e0 <__sfvwrite_r+0x310>
    46b8:	00c41683          	lh	x13,12(x8)
    46bc:	000b2483          	lw	x9,0(x22)
    46c0:	0026f793          	andi	x15,x13,2
    46c4:	f60798e3          	bne	x15,x0,4634 <__sfvwrite_r+0x64>
    46c8:	0016f793          	andi	x15,x13,1
    46cc:	12079c63          	bne	x15,x0,4804 <__sfvwrite_r+0x234>
    46d0:	00042783          	lw	x15,0(x8)
    46d4:	00842703          	lw	x14,8(x8)
    46d8:	80000ab7          	lui	x21,0x80000
    46dc:	00000b93          	addi	x23,x0,0
    46e0:	00000993          	addi	x19,x0,0
    46e4:	fffaca93          	xori	x21,x21,-1
    46e8:	00078513          	addi	x10,x15,0
    46ec:	00070c13          	addi	x24,x14,0
    46f0:	10098263          	beq	x19,x0,47f4 <__sfvwrite_r+0x224>
    46f4:	2006f613          	andi	x12,x13,512
    46f8:	24060c63          	beq	x12,x0,4950 <__sfvwrite_r+0x380>
    46fc:	00070c93          	addi	x25,x14,0
    4700:	2ee9e463          	bltu	x19,x14,49e8 <__sfvwrite_r+0x418>
    4704:	4806f713          	andi	x14,x13,1152
    4708:	08070a63          	beq	x14,x0,479c <__sfvwrite_r+0x1cc>
    470c:	01442603          	lw	x12,20(x8)
    4710:	01042583          	lw	x11,16(x8)
    4714:	00161713          	slli	x14,x12,0x1
    4718:	00c70733          	add	x14,x14,x12
    471c:	40b78933          	sub	x18,x15,x11
    4720:	01f75c13          	srli	x24,x14,0x1f
    4724:	00ec0c33          	add	x24,x24,x14
    4728:	00190793          	addi	x15,x18,1
    472c:	401c5c13          	srai	x24,x24,0x1
    4730:	013787b3          	add	x15,x15,x19
    4734:	000c0613          	addi	x12,x24,0
    4738:	00fc7663          	bgeu	x24,x15,4744 <__sfvwrite_r+0x174>
    473c:	00078c13          	addi	x24,x15,0
    4740:	00078613          	addi	x12,x15,0
    4744:	4006f693          	andi	x13,x13,1024
    4748:	2c068c63          	beq	x13,x0,4a20 <__sfvwrite_r+0x450>
    474c:	00060593          	addi	x11,x12,0
    4750:	000a0513          	addi	x10,x20,0
    4754:	464030ef          	jal	x1,7bb8 <_malloc_r>
    4758:	00050c93          	addi	x25,x10,0
    475c:	30050063          	beq	x10,x0,4a5c <__sfvwrite_r+0x48c>
    4760:	01042583          	lw	x11,16(x8)
    4764:	00090613          	addi	x12,x18,0
    4768:	4f9030ef          	jal	x1,8460 <memcpy>
    476c:	00c45783          	lhu	x15,12(x8)
    4770:	b7f7f793          	andi	x15,x15,-1153
    4774:	0807e793          	ori	x15,x15,128
    4778:	00f41623          	sh	x15,12(x8)
    477c:	012c8533          	add	x10,x25,x18
    4780:	412c07b3          	sub	x15,x24,x18
    4784:	01942823          	sw	x25,16(x8)
    4788:	01842a23          	sw	x24,20(x8)
    478c:	00a42023          	sw	x10,0(x8)
    4790:	00098c13          	addi	x24,x19,0
    4794:	00f42423          	sw	x15,8(x8)
    4798:	00098c93          	addi	x25,x19,0
    479c:	000c8613          	addi	x12,x25,0
    47a0:	000b8593          	addi	x11,x23,0
    47a4:	661030ef          	jal	x1,8604 <memmove>
    47a8:	00842703          	lw	x14,8(x8)
    47ac:	00042783          	lw	x15,0(x8)
    47b0:	00098913          	addi	x18,x19,0
    47b4:	41870733          	sub	x14,x14,x24
    47b8:	019787b3          	add	x15,x15,x25
    47bc:	00e42423          	sw	x14,8(x8)
    47c0:	00f42023          	sw	x15,0(x8)
    47c4:	00000993          	addi	x19,x0,0
    47c8:	008b2783          	lw	x15,8(x22)
    47cc:	012b8bb3          	add	x23,x23,x18
    47d0:	412787b3          	sub	x15,x15,x18
    47d4:	00fb2423          	sw	x15,8(x22)
    47d8:	0a078a63          	beq	x15,x0,488c <__sfvwrite_r+0x2bc>
    47dc:	00042783          	lw	x15,0(x8)
    47e0:	00842703          	lw	x14,8(x8)
    47e4:	00c41683          	lh	x13,12(x8)
    47e8:	00078513          	addi	x10,x15,0
    47ec:	00070c13          	addi	x24,x14,0
    47f0:	f00992e3          	bne	x19,x0,46f4 <__sfvwrite_r+0x124>
    47f4:	0004ab83          	lw	x23,0(x9)
    47f8:	0044a983          	lw	x19,4(x9)
    47fc:	00848493          	addi	x9,x9,8
    4800:	ee9ff06f          	jal	x0,46e8 <__sfvwrite_r+0x118>
    4804:	00000a93          	addi	x21,x0,0
    4808:	00000513          	addi	x10,x0,0
    480c:	00000c13          	addi	x24,x0,0
    4810:	00000993          	addi	x19,x0,0
    4814:	0c098e63          	beq	x19,x0,48f0 <__sfvwrite_r+0x320>
    4818:	0e050663          	beq	x10,x0,4904 <__sfvwrite_r+0x334>
    481c:	000a8793          	addi	x15,x21,0 # 80000000 <__heap_end+0x7fc00000>
    4820:	00098b93          	addi	x23,x19,0
    4824:	0137f463          	bgeu	x15,x19,482c <__sfvwrite_r+0x25c>
    4828:	00078b93          	addi	x23,x15,0
    482c:	00042503          	lw	x10,0(x8)
    4830:	01042783          	lw	x15,16(x8)
    4834:	00842903          	lw	x18,8(x8)
    4838:	01442683          	lw	x13,20(x8)
    483c:	00a7f663          	bgeu	x15,x10,4848 <__sfvwrite_r+0x278>
    4840:	00d90933          	add	x18,x18,x13
    4844:	0f794063          	blt	x18,x23,4924 <__sfvwrite_r+0x354>
    4848:	1adbc663          	blt	x23,x13,49f4 <__sfvwrite_r+0x424>
    484c:	02442783          	lw	x15,36(x8)
    4850:	01c42583          	lw	x11,28(x8)
    4854:	000c0613          	addi	x12,x24,0
    4858:	000a0513          	addi	x10,x20,0
    485c:	000780e7          	jalr	x1,0(x15)
    4860:	00050913          	addi	x18,x10,0
    4864:	06a05863          	bge	x0,x10,48d4 <__sfvwrite_r+0x304>
    4868:	412a8ab3          	sub	x21,x21,x18
    486c:	00100513          	addi	x10,x0,1
    4870:	040a8a63          	beq	x21,x0,48c4 <__sfvwrite_r+0x2f4>
    4874:	008b2783          	lw	x15,8(x22)
    4878:	012c0c33          	add	x24,x24,x18
    487c:	412989b3          	sub	x19,x19,x18
    4880:	412787b3          	sub	x15,x15,x18
    4884:	00fb2423          	sw	x15,8(x22)
    4888:	f80796e3          	bne	x15,x0,4814 <__sfvwrite_r+0x244>
    488c:	00000513          	addi	x10,x0,0
    4890:	02c12083          	lw	x1,44(x2)
    4894:	02812403          	lw	x8,40(x2)
    4898:	02412483          	lw	x9,36(x2)
    489c:	02012903          	lw	x18,32(x2)
    48a0:	01c12983          	lw	x19,28(x2)
    48a4:	01812a03          	lw	x20,24(x2)
    48a8:	01412a83          	lw	x21,20(x2)
    48ac:	01012b03          	lw	x22,16(x2)
    48b0:	00c12b83          	lw	x23,12(x2)
    48b4:	00812c03          	lw	x24,8(x2)
    48b8:	00412c83          	lw	x25,4(x2)
    48bc:	03010113          	addi	x2,x2,48
    48c0:	00008067          	jalr	x0,0(x1)
    48c4:	00040593          	addi	x11,x8,0
    48c8:	000a0513          	addi	x10,x20,0
    48cc:	c78ff0ef          	jal	x1,3d44 <_fflush_r>
    48d0:	fa0502e3          	beq	x10,x0,4874 <__sfvwrite_r+0x2a4>
    48d4:	00c41783          	lh	x15,12(x8)
    48d8:	0407e793          	ori	x15,x15,64
    48dc:	00f41623          	sh	x15,12(x8)
    48e0:	fff00513          	addi	x10,x0,-1
    48e4:	fadff06f          	jal	x0,4890 <__sfvwrite_r+0x2c0>
    48e8:	00000513          	addi	x10,x0,0
    48ec:	00008067          	jalr	x0,0(x1)
    48f0:	0044a983          	lw	x19,4(x9)
    48f4:	00048793          	addi	x15,x9,0
    48f8:	00848493          	addi	x9,x9,8
    48fc:	fe098ae3          	beq	x19,x0,48f0 <__sfvwrite_r+0x320>
    4900:	0007ac03          	lw	x24,0(x15)
    4904:	00098613          	addi	x12,x19,0
    4908:	00a00593          	addi	x11,x0,10
    490c:	000c0513          	addi	x10,x24,0
    4910:	28d030ef          	jal	x1,839c <memchr>
    4914:	12050e63          	beq	x10,x0,4a50 <__sfvwrite_r+0x480>
    4918:	00150513          	addi	x10,x10,1
    491c:	41850ab3          	sub	x21,x10,x24
    4920:	efdff06f          	jal	x0,481c <__sfvwrite_r+0x24c>
    4924:	000c0593          	addi	x11,x24,0
    4928:	00090613          	addi	x12,x18,0
    492c:	4d9030ef          	jal	x1,8604 <memmove>
    4930:	00042783          	lw	x15,0(x8)
    4934:	00040593          	addi	x11,x8,0
    4938:	000a0513          	addi	x10,x20,0
    493c:	012787b3          	add	x15,x15,x18
    4940:	00f42023          	sw	x15,0(x8)
    4944:	c00ff0ef          	jal	x1,3d44 <_fflush_r>
    4948:	f20500e3          	beq	x10,x0,4868 <__sfvwrite_r+0x298>
    494c:	f89ff06f          	jal	x0,48d4 <__sfvwrite_r+0x304>
    4950:	01042683          	lw	x13,16(x8)
    4954:	04f6e263          	bltu	x13,x15,4998 <__sfvwrite_r+0x3c8>
    4958:	01442603          	lw	x12,20(x8)
    495c:	02c9ee63          	bltu	x19,x12,4998 <__sfvwrite_r+0x3c8>
    4960:	00098793          	addi	x15,x19,0
    4964:	013af463          	bgeu	x21,x19,496c <__sfvwrite_r+0x39c>
    4968:	000a8793          	addi	x15,x21,0
    496c:	02c7e6b3          	rem	x13,x15,x12
    4970:	02442703          	lw	x14,36(x8)
    4974:	01c42583          	lw	x11,28(x8)
    4978:	000b8613          	addi	x12,x23,0
    497c:	000a0513          	addi	x10,x20,0
    4980:	40d786b3          	sub	x13,x15,x13
    4984:	000700e7          	jalr	x1,0(x14)
    4988:	00050913          	addi	x18,x10,0
    498c:	f4a054e3          	bge	x0,x10,48d4 <__sfvwrite_r+0x304>
    4990:	412989b3          	sub	x19,x19,x18
    4994:	e35ff06f          	jal	x0,47c8 <__sfvwrite_r+0x1f8>
    4998:	00070913          	addi	x18,x14,0
    499c:	00e9f463          	bgeu	x19,x14,49a4 <__sfvwrite_r+0x3d4>
    49a0:	00098913          	addi	x18,x19,0
    49a4:	00078513          	addi	x10,x15,0
    49a8:	00090613          	addi	x12,x18,0
    49ac:	000b8593          	addi	x11,x23,0
    49b0:	455030ef          	jal	x1,8604 <memmove>
    49b4:	00842703          	lw	x14,8(x8)
    49b8:	00042783          	lw	x15,0(x8)
    49bc:	41270733          	sub	x14,x14,x18
    49c0:	012787b3          	add	x15,x15,x18
    49c4:	00e42423          	sw	x14,8(x8)
    49c8:	00f42023          	sw	x15,0(x8)
    49cc:	fc0712e3          	bne	x14,x0,4990 <__sfvwrite_r+0x3c0>
    49d0:	00040593          	addi	x11,x8,0
    49d4:	000a0513          	addi	x10,x20,0
    49d8:	b6cff0ef          	jal	x1,3d44 <_fflush_r>
    49dc:	ee051ce3          	bne	x10,x0,48d4 <__sfvwrite_r+0x304>
    49e0:	412989b3          	sub	x19,x19,x18
    49e4:	de5ff06f          	jal	x0,47c8 <__sfvwrite_r+0x1f8>
    49e8:	00098c13          	addi	x24,x19,0
    49ec:	00098c93          	addi	x25,x19,0
    49f0:	dadff06f          	jal	x0,479c <__sfvwrite_r+0x1cc>
    49f4:	000b8613          	addi	x12,x23,0
    49f8:	000c0593          	addi	x11,x24,0
    49fc:	409030ef          	jal	x1,8604 <memmove>
    4a00:	00842703          	lw	x14,8(x8)
    4a04:	00042783          	lw	x15,0(x8)
    4a08:	000b8913          	addi	x18,x23,0
    4a0c:	41770733          	sub	x14,x14,x23
    4a10:	017787b3          	add	x15,x15,x23
    4a14:	00e42423          	sw	x14,8(x8)
    4a18:	00f42023          	sw	x15,0(x8)
    4a1c:	e4dff06f          	jal	x0,4868 <__sfvwrite_r+0x298>
    4a20:	000a0513          	addi	x10,x20,0
    4a24:	701040ef          	jal	x1,9924 <_realloc_r>
    4a28:	00050c93          	addi	x25,x10,0
    4a2c:	d40518e3          	bne	x10,x0,477c <__sfvwrite_r+0x1ac>
    4a30:	01042583          	lw	x11,16(x8)
    4a34:	000a0513          	addi	x10,x20,0
    4a38:	8a1ff0ef          	jal	x1,42d8 <_free_r>
    4a3c:	00c41783          	lh	x15,12(x8)
    4a40:	00c00713          	addi	x14,x0,12
    4a44:	00ea2023          	sw	x14,0(x20)
    4a48:	f7f7f793          	andi	x15,x15,-129
    4a4c:	e8dff06f          	jal	x0,48d8 <__sfvwrite_r+0x308>
    4a50:	00198793          	addi	x15,x19,1
    4a54:	00078a93          	addi	x21,x15,0
    4a58:	dc9ff06f          	jal	x0,4820 <__sfvwrite_r+0x250>
    4a5c:	00c00713          	addi	x14,x0,12
    4a60:	00c41783          	lh	x15,12(x8)
    4a64:	00ea2023          	sw	x14,0(x20)
    4a68:	e71ff06f          	jal	x0,48d8 <__sfvwrite_r+0x308>

00004a6c <_fwalk>:
    4a6c:	fe010113          	addi	x2,x2,-32
    4a70:	01212823          	sw	x18,16(x2)
    4a74:	01312623          	sw	x19,12(x2)
    4a78:	01412423          	sw	x20,8(x2)
    4a7c:	01512223          	sw	x21,4(x2)
    4a80:	01612023          	sw	x22,0(x2)
    4a84:	00112e23          	sw	x1,28(x2)
    4a88:	00812c23          	sw	x8,24(x2)
    4a8c:	00912a23          	sw	x9,20(x2)
    4a90:	00058b13          	addi	x22,x11,0
    4a94:	2e050a93          	addi	x21,x10,736
    4a98:	00000a13          	addi	x20,x0,0
    4a9c:	00100993          	addi	x19,x0,1
    4aa0:	fff00913          	addi	x18,x0,-1
    4aa4:	004aa483          	lw	x9,4(x21)
    4aa8:	008aa403          	lw	x8,8(x21)
    4aac:	fff48493          	addi	x9,x9,-1
    4ab0:	0204c663          	blt	x9,x0,4adc <_fwalk+0x70>
    4ab4:	00c45783          	lhu	x15,12(x8)
    4ab8:	fff48493          	addi	x9,x9,-1
    4abc:	00f9fc63          	bgeu	x19,x15,4ad4 <_fwalk+0x68>
    4ac0:	00e41783          	lh	x15,14(x8)
    4ac4:	00040513          	addi	x10,x8,0
